ARM Linker, 4.1 [Build 894] [Standard]

==============================================================================

Section Cross References

    cli.o(.text) refers to drv_uart.o(.text) for uartPrint
    cli.o(.text) refers to strlen.o(.text) for strlen
    cli.o(.text) refers to strncasecmp.o(.text) for strncasecmp
    cli.o(.text) refers to config.o(.text) for checkFirstTime
    cli.o(.text) refers to drv_system.o(.text) for delay
    cli.o(.text) refers to memseta.o(.text) for __aeabi_memclr
    cli.o(.text) refers to toupper.o(.text) for toupper
    cli.o(.text) refers to strchr.o(.text) for strchr
    cli.o(.text) refers to cli.o(.bss) for cliBuffer
    cli.o(.text) refers to cli.o(.data) for bufferIndex
    cli.o(.text) refers to serial.o(.data) for cliMode
    cli.o(.text) refers to cli.o(.constdata) for cmdTable
    cli.o(.text) refers to config.o(.constdata) for rcChannelLetters
    cli.o(.text) refers to config.o(.bss) for cfg
    cli.o(.text) refers to strstr.o(.text) for strstr
    cli.o(.text) refers to atoi.o(.text) for atoi
    cli.o(.text) refers to drv_i2c.o(.text) for i2cGetErrorCounter
    cli.o(.text) refers to bsearch.o(.text) for bsearch
    cli.o(.text) refers to mw.o(.data) for vbat
    cli.o(.text) refers to sensors.o(.data) for accHardware
    cli.o(.constdata) refers to cli.o(.conststring) for .conststring
    cli.o(.constdata) refers to cli.o(.text) for cliDefaults
    cli.o(.constdata) refers to config.o(.bss) for cfg
    cli.o(.data) refers to cli.o(.conststring) for .conststring
    config.o(.text) refers to strchr.o(.text) for strchr
    config.o(.text) refers to memcpya.o(.text) for __aeabi_memcpy4
    config.o(.text) refers to stm32f10x_flash.o(.text) for FLASH_Unlock
    config.o(.text) refers to mw.o(.text) for blinkLED
    config.o(.text) refers to config.o(.constdata) for rcChannelLetters
    config.o(.text) refers to config.o(.bss) for cfg
    config.o(.text) refers to mw.o(.bss) for lookupPitchRollRC
    config.o(.text) refers to config.o(.data) for checkNewConf
    imu.o(.text) refers to ffltui.o(.text) for __aeabi_ui2f
    imu.o(.text) refers to fmul.o(.text) for __aeabi_fmul
    imu.o(.text) refers to ffixi.o(.text) for __aeabi_f2iz
    imu.o(.text) refers to config.o(.text) for sensors
    imu.o(.text) refers to sensors.o(.text) for Mag_init
    imu.o(.text) refers to atan2f.o(i.atan2f) for atan2f
    imu.o(.text) refers to f2d.o(.text) for __aeabi_f2d
    imu.o(.text) refers to dmul.o(.text) for __aeabi_dmul
    imu.o(.text) refers to dfixi.o(.text) for __aeabi_d2iz
    imu.o(.text) refers to fadd.o(.text) for __aeabi_fadd
    imu.o(.text) refers to drv_system.o(.text) for micros
    imu.o(.text) refers to dfltui.o(.text) for __aeabi_ui2d
    imu.o(.text) refers to d2f.o(.text) for __aeabi_d2f
    imu.o(.text) refers to fflti.o(.text) for __aeabi_i2f
    imu.o(.text) refers to fdiv.o(.text) for __aeabi_fdiv
    imu.o(.text) refers to sensors.o(.data) for acc_1G
    imu.o(.text) refers to imu.o(.data) for acc_25deg
    imu.o(.text) refers to config.o(.bss) for cfg
    imu.o(.text) refers to imu.o(.bss) for accLPF
    imu.o(.text) refers to mw.o(.text) for annexCode
    imu.o(.text) refers to mw.o(.data) for annex650_overrun_count
    main.o(.text) refers to drv_pwm.o(.text) for pwmGetNumOutputChannels
    main.o(.text) refers to drv_system.o(.text) for delay
    main.o(.text) refers to config.o(.text) for readEEPROM
    main.o(.text) refers to serial.o(.text) for serialInit
    main.o(.text) refers to mixer.o(.text) for mixerInit
    main.o(.text) refers to sensors.o(.text) for sensorsAutodetect
    main.o(.text) refers to imu.o(.text) for imuInit
    main.o(.text) refers to wificontroller.o(.text) for wifiInit
    main.o(.text) refers to spektrum.o(.text) for spektrumInit
    main.o(.text) refers to gps.o(.text) for gpsInit
    main.o(.text) refers to mw.o(.text) for loop
    main.o(.text) refers to mixer.o(.data) for useServo
    main.o(.text) refers to config.o(.bss) for cfg
    main.o(.text) refers to mw.o(.data) for rcReadRawFunc
    main.o(.text) refers to sensors.o(.data) for calibratingG
    mixer.o(.text) refers to config.o(.text) for feature
    mixer.o(.text) refers to drv_pwm.o(.text) for pwmWrite
    mixer.o(.text) refers to config.o(.bss) for cfg
    mixer.o(.text) refers to mixer.o(.data) for useServo
    mixer.o(.text) refers to mixer.o(.bss) for motor
    mixer.o(.text) refers to mw.o(.data) for axisPID
    mixer.o(.text) refers to imu.o(.data) for angle
    mixer.o(.text) refers to drv_system.o(.text) for millis
    mixer.o(.text) refers to mw.o(.bss) for rcOptions
    mw.o(.text) refers to drv_system.o(.text) for delay
    mw.o(.text) refers to dflti.o(.text) for __aeabi_i2d
    mw.o(.text) refers to dmul.o(.text) for __aeabi_dmul
    mw.o(.text) refers to ddiv.o(.text) for __aeabi_ddiv
    mw.o(.text) refers to d2f.o(.text) for __aeabi_d2f
    mw.o(.text) refers to cosf.o(i.cosf) for cosf
    mw.o(.text) refers to sinf.o(i.sinf) for sinf
    mw.o(.text) refers to fflti.o(.text) for __aeabi_i2f
    mw.o(.text) refers to fmul.o(.text) for __aeabi_fmul
    mw.o(.text) refers to fadd.o(.text) for __aeabi_fadd
    mw.o(.text) refers to ffixi.o(.text) for __aeabi_f2iz
    mw.o(.text) refers to config.o(.text) for feature
    mw.o(.text) refers to drv_adc.o(.text) for adcGetBattery
    mw.o(.text) refers to sensors.o(.text) for batteryAdcToVoltage
    mw.o(.text) refers to mw.o(.data) for rcData
    mw.o(.text) refers to config.o(.bss) for cfg
    mw.o(.text) refers to mw.o(.bss) for lookupPitchRollRC
    mw.o(.text) refers to sensors.o(.data) for heading
    mw.o(.text) refers to buzzer.o(.text) for buzzer
    mw.o(.text) refers to drv_ledring.o(.text) for ledringState
    mw.o(.text) refers to serial.o(.text) for serialCom
    mw.o(.text) refers to drv_pwm.o(.text) for pwmRead
    mw.o(.text) refers to wificontroller.o(.text) for wifiFrameComplete
    mw.o(.text) refers to spektrum.o(.text) for spektrumFrameComplete
    mw.o(.text) refers to gps.o(.text) for GPS_reset_home_position
    mw.o(.text) refers to imu.o(.data) for smallAngle25
    mw.o(.text) refers to imu.o(.text) for getEstimatedAltitude
    mw.o(.text) refers to fdiv.o(.text) for __aeabi_fdiv
    mw.o(.text) refers to mixer.o(.text) for mixTable
    sensors.o(.text) refers to drv_mpu6050.o(.text) for mpu6050Detect
    sensors.o(.text) refers to drv_mpu3050.o(.text) for mpu3050Detect
    sensors.o(.text) refers to drv_system.o(.text) for failureMode
    sensors.o(.text) refers to drv_adxl345.o(.text) for adxl345Detect
    sensors.o(.text) refers to drv_mma845x.o(.text) for mma8452Detect
    sensors.o(.text) refers to config.o(.text) for sensorsClear
    sensors.o(.text) refers to drv_bmp085.o(.text) for bmp085Init
    sensors.o(.text) refers to drv_hmc5883l.o(.text) for hmc5883lDetect
    sensors.o(.text) refers to fflti.o(.text) for __aeabi_i2f
    sensors.o(.text) refers to fmul.o(.text) for __aeabi_fmul
    sensors.o(.text) refers to fadd.o(.text) for __aeabi_fadd
    sensors.o(.text) refers to ffltui.o(.text) for __aeabi_ui2f
    sensors.o(.text) refers to fdiv.o(.text) for __aeabi_fdiv
    sensors.o(.text) refers to ffixui.o(.text) for __aeabi_f2uiz
    sensors.o(.text) refers to drv_adc.o(.text) for adcGetBattery
    sensors.o(.text) refers to sensors.o(.bss) for gyro
    sensors.o(.text) refers to config.o(.bss) for cfg
    sensors.o(.text) refers to sensors.o(.data) for accHardware
    sensors.o(.text) refers to imu.o(.data) for magneticDeclination
    sensors.o(.text) refers to mw.o(.data) for batteryCellCount
    sensors.o(.text) refers to f2d.o(.text) for __aeabi_f2d
    sensors.o(.text) refers to pow.o(i.pow) for pow
    sensors.o(.text) refers to dadd.o(.text) for __aeabi_drsub
    sensors.o(.text) refers to dmul.o(.text) for __aeabi_dmul
    sensors.o(.text) refers to dfixi.o(.text) for __aeabi_d2iz
    sensors.o(.text) refers to mw.o(.text) for blinkLED
    sensors.o(.text) refers to cfrcmple.o(.text) for __aeabi_cfrcmple
    sensors.o(.text) refers to cfcmple.o(.text) for __aeabi_cfcmple
    sensors.o(.text) refers to ffixi.o(.text) for __aeabi_f2iz
    serial.o(.text) refers to drv_uart.o(.text) for uartWrite
    serial.o(.text) refers to cli.o(.text) for cliProcess
    serial.o(.text) refers to drv_i2c.o(.text) for i2cGetErrorCounter
    serial.o(.text) refers to config.o(.text) for sensors
    serial.o(.text) refers to serial.o(.data) for t
    serial.o(.text) refers to serial.o(.bss) for inBuf
    serial.o(.text) refers to mw.o(.data) for rcData
    serial.o(.text) refers to config.o(.bss) for cfg
    serial.o(.text) refers to drv_system.o(.text) for systemReset
    serial.o(.text) refers to imu.o(.data) for accSmooth
    serial.o(.text) refers to mixer.o(.data) for servo
    serial.o(.text) refers to mixer.o(.bss) for motor
    serial.o(.text) refers to sensors.o(.data) for heading
    gps.o(.text) refers to fflti.o(.text) for __aeabi_i2f
    gps.o(.text) refers to fdiv.o(.text) for __aeabi_fdiv
    gps.o(.text) refers to fadd.o(.text) for __aeabi_fsub
    gps.o(.text) refers to f2d.o(.text) for __aeabi_f2d
    gps.o(.text) refers to ffltui.o(.text) for __aeabi_ui2f
    gps.o(.text) refers to dmul.o(.text) for __aeabi_dmul
    gps.o(.text) refers to ddiv.o(.text) for __aeabi_ddiv
    gps.o(.text) refers to dadd.o(.text) for __aeabi_dadd
    gps.o(.text) refers to d2f.o(.text) for __aeabi_d2f
    gps.o(.text) refers to fmul.o(.text) for __aeabi_fmul
    gps.o(.text) refers to ffixi.o(.text) for __aeabi_f2iz
    gps.o(.text) refers to cfrcmple.o(.text) for __aeabi_cfrcmple
    gps.o(.text) refers to dfltui.o(.text) for __aeabi_ui2d
    gps.o(.text) refers to sin.o(i.sin) for sin
    gps.o(.text) refers to dfixi.o(.text) for __aeabi_d2iz
    gps.o(.text) refers to cosf.o(i.cosf) for cosf
    gps.o(.text) refers to sinf.o(i.sinf) for sinf
    gps.o(.text) refers to gps.o(.data) for target_bearing
    gps.o(.text) refers to config.o(.bss) for cfg
    gps.o(.text) refers to gps.o(.bss) for pid_nav
    gps.o(.text) refers to mw.o(.data) for nav
    gps.o(.text) refers to sqrtf.o(i.sqrtf) for sqrtf
    gps.o(.text) refers to ffixui.o(.text) for __aeabi_f2uiz
    gps.o(.text) refers to atan2f.o(i.atan2f) for atan2f
    gps.o(.text) refers to drv_system.o(.text) for millis
    gps.o(.text) refers to cfcmple.o(.text) for __aeabi_cfcmple
    gps.o(.text) refers to sensors.o(.data) for heading
    gps.o(.text) refers to drv_uart.o(.text) for uart2Init
    gps.o(.text) refers to config.o(.text) for sensorsSet
    spektrum.o(.text) refers to drv_system.o(.text) for micros
    spektrum.o(.text) refers to drv_uart.o(.text) for uart2Init
    spektrum.o(.text) refers to spektrum.o(.data) for spekDataIncoming
    spektrum.o(.text) refers to spektrum.o(.bss) for spekFrame
    spektrum.o(.text) refers to mw.o(.data) for failsafeCnt
    spektrum.o(.text) refers to config.o(.bss) for cfg
    buzzer.o(.text) refers to config.o(.text) for feature
    buzzer.o(.text) refers to drv_system.o(.text) for millis
    buzzer.o(.text) refers to mw.o(.bss) for rcOptions
    buzzer.o(.text) refers to buzzer.o(.data) for beeperOnBox
    buzzer.o(.text) refers to config.o(.bss) for cfg
    buzzer.o(.text) refers to mw.o(.data) for failsafeCnt
    wificontroller.o(.text) refers to drv_system.o(.text) for micros
    wificontroller.o(.text) refers to drv_uart.o(.text) for uart2Init
    wificontroller.o(.text) refers to printf5.o(i.__0sprintf$5) for __2sprintf
    wificontroller.o(.text) refers to wificontroller.o(.bss) for wifiFrame
    wificontroller.o(.text) refers to wificontroller.o(.data) for wifiDataIncoming
    wificontroller.o(.text) refers to mw.o(.data) for failsafeCnt
    wificontroller.o(.text) refers to config.o(.bss) for cfg
    drv_adc.o(.text) refers to stm32f10x_dma.o(.text) for DMA_DeInit
    drv_adc.o(.text) refers to stm32f10x_adc.o(.text) for ADC_Init
    drv_adc.o(.text) refers to drv_adc.o(.data) for adc1Ch4Value
    drv_adxl345.o(.text) refers to drv_i2c.o(.text) for i2cRead
    drv_adxl345.o(.text) refers to drv_adxl345.o(.data) for useFifo
    drv_adxl345.o(.text) refers to sensors.o(.data) for acc_1G
    drv_bmp085.o(.text) refers to stm32f10x_exti.o(.text) for EXTI_GetITStatus
    drv_bmp085.o(.text) refers to drv_i2c.o(.text) for i2cRead
    drv_bmp085.o(.text) refers to stm32f10x_gpio.o(.text) for GPIO_Init
    drv_bmp085.o(.text) refers to misc.o(.text) for NVIC_Init
    drv_bmp085.o(.text) refers to drv_system.o(.text) for delay
    drv_bmp085.o(.text) refers to drv_bmp085.o(.data) for convDone
    drv_bmp085.o(.data) refers to drv_bmp085.o(.bss) for bmp085
    drv_hmc5883l.o(.text) refers to drv_i2c.o(.text) for i2cRead
    drv_hmc5883l.o(.text) refers to drv_system.o(.text) for delay
    drv_i2c.o(.text) refers to stm32f10x_gpio.o(.text) for GPIO_Init
    drv_i2c.o(.text) refers to drv_system.o(.text) for delayMicroseconds
    drv_i2c.o(.text) refers to stm32f10x_i2c.o(.text) for I2C_DeInit
    drv_i2c.o(.text) refers to misc.o(.text) for NVIC_PriorityGroupConfig
    drv_i2c.o(.text) refers to drv_i2c.o(.data) for I2Cx
    drv_mpu3050.o(.text) refers to drv_i2c.o(.text) for i2cRead
    drv_mpu3050.o(.text) refers to drv_system.o(.text) for delay
    drv_mpu3050.o(.text) refers to drv_mpu3050.o(.data) for mpuLowPassFilter
    drv_pwm.o(.text) refers to stm32f10x_tim.o(.text) for TIM_GetITStatus
    drv_pwm.o(.text) refers to stm32f10x_gpio.o(.text) for GPIO_Init
    drv_pwm.o(.text) refers to misc.o(.text) for NVIC_Init
    drv_pwm.o(.text) refers to drv_pwm.o(.data) for Channels
    drv_pwm.o(.text) refers to drv_pwm.o(.bss) for Inputs
    drv_pwm.o(.text) refers to mw.o(.data) for failsafeCnt
    drv_system.o(.text) refers to stm32f10x_rcc.o(.text) for RCC_GetClocksFreq
    drv_system.o(.text) refers to memcpya.o(.text) for __aeabi_memcpy4
    drv_system.o(.text) refers to stm32f10x_gpio.o(.text) for GPIO_Init
    drv_system.o(.text) refers to drv_adc.o(.text) for adcInit
    drv_system.o(.text) refers to drv_i2c.o(.text) for i2cInit
    drv_system.o(.text) refers to drv_system.o(.data) for usTicks
    drv_system.o(.text) refers to drv_system.o(.constdata) for .constdata
    drv_system.o(.text) refers to system_stm32f10x.o(.data) for SystemCoreClock
    drv_uart.o(.text) refers to stm32f10x_dma.o(.text) for DMA_Cmd
    drv_uart.o(.text) refers to stm32f10x_gpio.o(.text) for GPIO_Init
    drv_uart.o(.text) refers to misc.o(.text) for NVIC_Init
    drv_uart.o(.text) refers to stm32f10x_usart.o(.text) for USART_Init
    drv_uart.o(.text) refers to stm32f10x_rcc.o(.text) for RCC_APB1PeriphClockCmd
    drv_uart.o(.text) refers to drv_uart.o(.bss) for txBuffer
    drv_uart.o(.text) refers to drv_uart.o(.data) for txBufferTail
    drv_ledring.o(.text) refers to drv_i2c.o(.text) for i2cWrite
    drv_ledring.o(.text) refers to drv_ledring.o(.data) for state
    drv_ledring.o(.text) refers to sensors.o(.data) for heading
    drv_ledring.o(.text) refers to imu.o(.data) for angle
    drv_ledring.o(.text) refers to mw.o(.data) for armed
    drv_mpu6050.o(.text) refers to drv_i2c.o(.text) for i2cRead
    drv_mpu6050.o(.text) refers to drv_system.o(.text) for delay
    drv_mpu6050.o(.text) refers to drv_mpu6050.o(.data) for mpuProductID
    drv_mpu6050.o(.text) refers to sensors.o(.data) for acc_1G
    drv_mma845x.o(.text) refers to drv_i2c.o(.text) for i2cRead
    drv_mma845x.o(.text) refers to sensors.o(.data) for acc_1G
    drv_mma845x.o(.text) refers to drv_mma845x.o(.data) for device_id
    system_stm32f10x.o(.text) refers to system_stm32f10x.o(.data) for .data
    stm32f10x_adc.o(.text) refers to stm32f10x_rcc.o(.text) for RCC_APB2PeriphResetCmd
    stm32f10x_i2c.o(.text) refers to stm32f10x_rcc.o(.text) for RCC_APB1PeriphResetCmd
    stm32f10x_rcc.o(.text) refers to stm32f10x_rcc.o(.data) for .data
    stm32f10x_tim.o(.text) refers to stm32f10x_rcc.o(.text) for RCC_APB1PeriphResetCmd
    stm32f10x_usart.o(.text) refers to stm32f10x_rcc.o(.text) for RCC_APB2PeriphResetCmd
    stm32f10x_gpio.o(.text) refers to stm32f10x_rcc.o(.text) for RCC_APB2PeriphResetCmd
    startup_stm32f10x_md.o(RESET) refers to startup_stm32f10x_md.o(STACK) for __initial_sp
    startup_stm32f10x_md.o(RESET) refers to startup_stm32f10x_md.o(.text) for Reset_Handler
    startup_stm32f10x_md.o(RESET) refers to drv_system.o(.text) for SysTick_Handler
    startup_stm32f10x_md.o(RESET) refers to drv_uart.o(.text) for DMA1_Channel4_IRQHandler
    startup_stm32f10x_md.o(RESET) refers to drv_pwm.o(.text) for TIM2_IRQHandler
    startup_stm32f10x_md.o(RESET) refers to drv_i2c.o(.text) for I2C1_EV_IRQHandler
    startup_stm32f10x_md.o(RESET) refers to drv_bmp085.o(.text) for EXTI15_10_IRQHandler
    startup_stm32f10x_md.o(.text) refers to system_stm32f10x.o(.text) for SystemInit
    startup_stm32f10x_md.o(.text) refers to entry.o(.ARM.Collect$$$$00000000) for __main
    atan2f.o(i.__softfp_atan2f) refers (Special) to iusefp.o(.text) for __I$use$fp
    atan2f.o(i.__softfp_atan2f) refers to atan2f.o(i.atan2f) for atan2f
    atan2f.o(i.atan2f) refers (Special) to iusefp.o(.text) for __I$use$fp
    atan2f.o(i.atan2f) refers to fadd.o(.text) for __aeabi_fadd
    atan2f.o(i.atan2f) refers to fmul.o(.text) for __aeabi_fmul
    atan2f.o(i.atan2f) refers to fdiv.o(.text) for __aeabi_fdiv
    atan2f.o(i.atan2f) refers to fpclassifyf.o(i.__ARM_fpclassifyf) for __ARM_fpclassifyf
    atan2f.o(i.atan2f) refers to funder.o(i.__mathlib_flt_underflow) for __mathlib_flt_underflow
    atan2f_x.o(i.____softfp_atan2f$lsc) refers (Special) to iusefp.o(.text) for __I$use$fp
    atan2f_x.o(i.____softfp_atan2f$lsc) refers to atan2f_x.o(i.__atan2f$lsc) for __atan2f$lsc
    atan2f_x.o(i.__atan2f$lsc) refers (Special) to iusefp.o(.text) for __I$use$fp
    atan2f_x.o(i.__atan2f$lsc) refers to fadd.o(.text) for __aeabi_fadd
    atan2f_x.o(i.__atan2f$lsc) refers to errno.o(i.__set_errno) for __set_errno
    atan2f_x.o(i.__atan2f$lsc) refers to fmul.o(.text) for __aeabi_fmul
    atan2f_x.o(i.__atan2f$lsc) refers to fdiv.o(.text) for __aeabi_fdiv
    cosf.o(i.__softfp_cosf) refers (Special) to iusefp.o(.text) for __I$use$fp
    cosf.o(i.__softfp_cosf) refers to cosf.o(i.cosf) for cosf
    cosf.o(i.cosf) refers (Special) to iusefp.o(.text) for __I$use$fp
    cosf.o(i.cosf) refers to fmul.o(.text) for __aeabi_fmul
    cosf.o(i.cosf) refers to frnd.o(.text) for _frnd
    cosf.o(i.cosf) refers to ffixi.o(.text) for __aeabi_f2iz
    cosf.o(i.cosf) refers to fadd.o(.text) for __aeabi_frsub
    cosf.o(i.cosf) refers to rredf.o(i.__mathlib_rredf2) for __mathlib_rredf2
    cosf.o(i.cosf) refers to errno.o(i.__set_errno) for __set_errno
    cosf.o(i.cosf) refers to fdiv.o(.text) for __aeabi_fdiv
    cosf.o(i.cosf) refers to fscalb.o(.text) for __ARM_scalbnf
    cosf_x.o(i.____softfp_cosf$lsc) refers (Special) to iusefp.o(.text) for __I$use$fp
    cosf_x.o(i.____softfp_cosf$lsc) refers to cosf_x.o(i.__cosf$lsc) for __cosf$lsc
    cosf_x.o(i.__cosf$lsc) refers (Special) to iusefp.o(.text) for __I$use$fp
    cosf_x.o(i.__cosf$lsc) refers to fmul.o(.text) for __aeabi_fmul
    cosf_x.o(i.__cosf$lsc) refers to frnd.o(.text) for _frnd
    cosf_x.o(i.__cosf$lsc) refers to ffixi.o(.text) for __aeabi_f2iz
    cosf_x.o(i.__cosf$lsc) refers to fadd.o(.text) for __aeabi_frsub
    cosf_x.o(i.__cosf$lsc) refers to rredf.o(i.__mathlib_rredf2) for __mathlib_rredf2
    cosf_x.o(i.__cosf$lsc) refers to errno.o(i.__set_errno) for __set_errno
    cosf_x.o(i.__cosf$lsc) refers to fscalb.o(.text) for __ARM_scalbnf
    pow.o(i.__softfp_pow) refers (Special) to iusefp.o(.text) for __I$use$fp
    pow.o(i.__softfp_pow) refers to pow.o(i.pow) for pow
    pow.o(i.pow) refers (Special) to iusefp.o(.text) for __I$use$fp
    pow.o(i.pow) refers to dadd.o(.text) for __aeabi_dadd
    pow.o(i.pow) refers to errno.o(i.__set_errno) for __set_errno
    pow.o(i.pow) refers to ddiv.o(.text) for __aeabi_ddiv
    pow.o(i.pow) refers to dscalb.o(.text) for __ARM_scalbn
    pow.o(i.pow) refers to sqrt.o(i.sqrt) for sqrt
    pow.o(i.pow) refers to dmul.o(.text) for __aeabi_dmul
    pow.o(i.pow) refers to dunder.o(i.__mathlib_dbl_underflow) for __mathlib_dbl_underflow
    pow.o(i.pow) refers to qnan.o(.constdata) for __mathlib_zero
    pow.o(i.pow) refers to poly.o(i.__kernel_poly) for __kernel_poly
    pow.o(i.pow) refers to dflti.o(.text) for __aeabi_i2d
    pow.o(i.pow) refers to cdrcmple.o(.text) for __aeabi_cdrcmple
    pow.o(i.pow) refers to pow.o(.constdata) for .constdata
    pow.o(i.pow) refers to fpclassify.o(i.__ARM_fpclassify) for __ARM_fpclassify
    pow.o(.constdata) refers (Special) to iusefp.o(.text) for __I$use$fp
    pow_x.o(i.____softfp_pow$lsc) refers (Special) to iusefp.o(.text) for __I$use$fp
    pow_x.o(i.____softfp_pow$lsc) refers to pow_x.o(i.__pow$lsc) for __pow$lsc
    pow_x.o(i.__pow$lsc) refers (Special) to iusefp.o(.text) for __I$use$fp
    pow_x.o(i.__pow$lsc) refers to dadd.o(.text) for __aeabi_dadd
    pow_x.o(i.__pow$lsc) refers to errno.o(i.__set_errno) for __set_errno
    pow_x.o(i.__pow$lsc) refers to ddiv.o(.text) for __aeabi_ddiv
    pow_x.o(i.__pow$lsc) refers to sqrt.o(i.sqrt) for sqrt
    pow_x.o(i.__pow$lsc) refers to dmul.o(.text) for __aeabi_dmul
    pow_x.o(i.__pow$lsc) refers to dflti.o(.text) for __aeabi_i2d
    pow_x.o(i.__pow$lsc) refers to dscalb.o(.text) for __ARM_scalbn
    pow_x.o(i.__pow$lsc) refers to qnan.o(.constdata) for __mathlib_zero
    pow_x.o(i.__pow$lsc) refers to pow_x.o(.constdata) for .constdata
    pow_x.o(i.__pow$lsc) refers to poly.o(i.__kernel_poly) for __kernel_poly
    pow_x.o(i.__pow$lsc) refers to cdrcmple.o(.text) for __aeabi_cdrcmple
    pow_x.o(.constdata) refers (Special) to iusefp.o(.text) for __I$use$fp
    sin.o(i.__softfp_sin) refers (Special) to iusefp.o(.text) for __I$use$fp
    sin.o(i.__softfp_sin) refers to sin.o(i.sin) for sin
    sin.o(i.sin) refers (Special) to iusefp.o(.text) for __I$use$fp
    sin.o(i.sin) refers to errno.o(i.__set_errno) for __set_errno
    sin.o(i.sin) refers to ddiv.o(.text) for __aeabi_ddiv
    sin.o(i.sin) refers to dscalb.o(.text) for __ARM_scalbn
    sin.o(i.sin) refers to rred.o(i.__ieee754_rem_pio2) for __ieee754_rem_pio2
    sin.o(i.sin) refers to cos_i.o(i.__kernel_cos) for __kernel_cos
    sin.o(i.sin) refers to sin_i.o(i.__kernel_sin) for __kernel_sin
    sin_x.o(i.____softfp_sin$lsc) refers (Special) to iusefp.o(.text) for __I$use$fp
    sin_x.o(i.____softfp_sin$lsc) refers to sin_x.o(i.__sin$lsc) for __sin$lsc
    sin_x.o(i.__sin$lsc) refers (Special) to iusefp.o(.text) for __I$use$fp
    sin_x.o(i.__sin$lsc) refers to errno.o(i.__set_errno) for __set_errno
    sin_x.o(i.__sin$lsc) refers to dscalb.o(.text) for __ARM_scalbn
    sin_x.o(i.__sin$lsc) refers to rred.o(i.__ieee754_rem_pio2) for __ieee754_rem_pio2
    sin_x.o(i.__sin$lsc) refers to cos_i.o(i.__kernel_cos) for __kernel_cos
    sin_x.o(i.__sin$lsc) refers to sin_i.o(i.__kernel_sin) for __kernel_sin
    sinf.o(i.__softfp_sinf) refers (Special) to iusefp.o(.text) for __I$use$fp
    sinf.o(i.__softfp_sinf) refers to sinf.o(i.sinf) for sinf
    sinf.o(i.sinf) refers (Special) to iusefp.o(.text) for __I$use$fp
    sinf.o(i.sinf) refers to fmul.o(.text) for __aeabi_fmul
    sinf.o(i.sinf) refers to frnd.o(.text) for _frnd
    sinf.o(i.sinf) refers to ffixi.o(.text) for __aeabi_f2iz
    sinf.o(i.sinf) refers to fadd.o(.text) for __aeabi_frsub
    sinf.o(i.sinf) refers to rredf.o(i.__mathlib_rredf2) for __mathlib_rredf2
    sinf.o(i.sinf) refers to fpclassifyf.o(i.__ARM_fpclassifyf) for __ARM_fpclassifyf
    sinf.o(i.sinf) refers to funder.o(i.__mathlib_flt_underflow) for __mathlib_flt_underflow
    sinf.o(i.sinf) refers to errno.o(i.__set_errno) for __set_errno
    sinf.o(i.sinf) refers to fdiv.o(.text) for __aeabi_fdiv
    sinf.o(i.sinf) refers to fscalb.o(.text) for __ARM_scalbnf
    sinf_x.o(i.____softfp_sinf$lsc) refers (Special) to iusefp.o(.text) for __I$use$fp
    sinf_x.o(i.____softfp_sinf$lsc) refers to sinf_x.o(i.__sinf$lsc) for __sinf$lsc
    sinf_x.o(i.__sinf$lsc) refers (Special) to iusefp.o(.text) for __I$use$fp
    sinf_x.o(i.__sinf$lsc) refers to fmul.o(.text) for __aeabi_fmul
    sinf_x.o(i.__sinf$lsc) refers to frnd.o(.text) for _frnd
    sinf_x.o(i.__sinf$lsc) refers to ffixi.o(.text) for __aeabi_f2iz
    sinf_x.o(i.__sinf$lsc) refers to fadd.o(.text) for __aeabi_frsub
    sinf_x.o(i.__sinf$lsc) refers to rredf.o(i.__mathlib_rredf2) for __mathlib_rredf2
    sinf_x.o(i.__sinf$lsc) refers to errno.o(i.__set_errno) for __set_errno
    sinf_x.o(i.__sinf$lsc) refers to fscalb.o(.text) for __ARM_scalbnf
    sqrtf.o(i.__softfp_sqrtf) refers (Special) to iusefp.o(.text) for __I$use$fp
    sqrtf.o(i.__softfp_sqrtf) refers to fsqrt.o(.text) for _fsqrt
    sqrtf.o(i.__softfp_sqrtf) refers to errno.o(i.__set_errno) for __set_errno
    sqrtf.o(i.sqrtf) refers (Special) to iusefp.o(.text) for __I$use$fp
    sqrtf.o(i.sqrtf) refers to fsqrt.o(.text) for _fsqrt
    sqrtf.o(i.sqrtf) refers to errno.o(i.__set_errno) for __set_errno
    sqrtf_x.o(i.____softfp_sqrtf$lsc) refers (Special) to iusefp.o(.text) for __I$use$fp
    sqrtf_x.o(i.____softfp_sqrtf$lsc) refers to errno.o(i.__set_errno) for __set_errno
    sqrtf_x.o(i.____softfp_sqrtf$lsc) refers to fsqrt.o(.text) for _fsqrt
    sqrtf_x.o(i.__sqrtf$lsc) refers (Special) to iusefp.o(.text) for __I$use$fp
    sqrtf_x.o(i.__sqrtf$lsc) refers to errno.o(i.__set_errno) for __set_errno
    sqrtf_x.o(i.__sqrtf$lsc) refers to fsqrt.o(.text) for _fsqrt
    entry.o(.ARM.Collect$$$$00000000) refers (Special) to entry7b.o(.ARM.Collect$$$$00000008) for _main_clock
    entry.o(.ARM.Collect$$$$00000000) refers (Special) to entry8.o(.ARM.Collect$$$$00000009) for _main_init
    entry.o(.ARM.Collect$$$$00000000) refers (Special) to entry5.o(.ARM.Collect$$$$00000004) for _main_scatterload
    entry.o(.ARM.Collect$$$$00000000) refers (Special) to entry2.o(.ARM.Collect$$$$00000001) for _main_stk
    strncasecmp.o(.text) refers to tolower.o(.text) for tolower
    printfb.o(i.__0fprintf$bare) refers to printfb.o(i._printf_core) for _printf_core
    printfb.o(i.__0fprintf$bare) refers to fputc.o(i.fputc) for fputc
    printfb.o(i.__0printf$bare) refers to printfb.o(i._printf_core) for _printf_core
    printfb.o(i.__0printf$bare) refers to fputc.o(i.fputc) for fputc
    printfb.o(i.__0printf$bare) refers to stdout.o(.data) for __stdout
    printfb.o(i.__0snprintf$bare) refers to printfb.o(i._printf_core) for _printf_core
    printfb.o(i.__0snprintf$bare) refers to printfb.o(i._snputc) for _snputc
    printfb.o(i.__0sprintf$bare) refers to printfb.o(i._printf_core) for _printf_core
    printfb.o(i.__0sprintf$bare) refers to printfb.o(i._sputc) for _sputc
    printfb.o(i.__0vfprintf$bare) refers to printfb.o(i._printf_core) for _printf_core
    printfb.o(i.__0vfprintf$bare) refers to fputc.o(i.fputc) for fputc
    printfb.o(i.__0vprintf$bare) refers to printfb.o(i._printf_core) for _printf_core
    printfb.o(i.__0vprintf$bare) refers to fputc.o(i.fputc) for fputc
    printfb.o(i.__0vprintf$bare) refers to stdout.o(.data) for __stdout
    printfb.o(i.__0vsnprintf$bare) refers to printfb.o(i._printf_core) for _printf_core
    printfb.o(i.__0vsnprintf$bare) refers to printfb.o(i._snputc) for _snputc
    printfb.o(i.__0vsprintf$bare) refers to printfb.o(i._printf_core) for _printf_core
    printfb.o(i.__0vsprintf$bare) refers to printfb.o(i._sputc) for _sputc
    printf0.o(i.__0fprintf$0) refers to printf0.o(i._printf_core) for _printf_core
    printf0.o(i.__0fprintf$0) refers to fputc.o(i.fputc) for fputc
    printf0.o(i.__0printf$0) refers to printf0.o(i._printf_core) for _printf_core
    printf0.o(i.__0printf$0) refers to fputc.o(i.fputc) for fputc
    printf0.o(i.__0printf$0) refers to stdout.o(.data) for __stdout
    printf0.o(i.__0snprintf$0) refers to printf0.o(i._printf_core) for _printf_core
    printf0.o(i.__0snprintf$0) refers to printf0.o(i._snputc) for _snputc
    printf0.o(i.__0sprintf$0) refers to printf0.o(i._printf_core) for _printf_core
    printf0.o(i.__0sprintf$0) refers to printf0.o(i._sputc) for _sputc
    printf0.o(i.__0vfprintf$0) refers to printf0.o(i._printf_core) for _printf_core
    printf0.o(i.__0vfprintf$0) refers to fputc.o(i.fputc) for fputc
    printf0.o(i.__0vprintf$0) refers to printf0.o(i._printf_core) for _printf_core
    printf0.o(i.__0vprintf$0) refers to fputc.o(i.fputc) for fputc
    printf0.o(i.__0vprintf$0) refers to stdout.o(.data) for __stdout
    printf0.o(i.__0vsnprintf$0) refers to printf0.o(i._printf_core) for _printf_core
    printf0.o(i.__0vsnprintf$0) refers to printf0.o(i._snputc) for _snputc
    printf0.o(i.__0vsprintf$0) refers to printf0.o(i._printf_core) for _printf_core
    printf0.o(i.__0vsprintf$0) refers to printf0.o(i._sputc) for _sputc
    printf1.o(i.__0fprintf$1) refers to printf1.o(i._printf_core) for _printf_core
    printf1.o(i.__0fprintf$1) refers to fputc.o(i.fputc) for fputc
    printf1.o(i.__0printf$1) refers to printf1.o(i._printf_core) for _printf_core
    printf1.o(i.__0printf$1) refers to fputc.o(i.fputc) for fputc
    printf1.o(i.__0printf$1) refers to stdout.o(.data) for __stdout
    printf1.o(i.__0snprintf$1) refers to printf1.o(i._printf_core) for _printf_core
    printf1.o(i.__0snprintf$1) refers to printf1.o(i._snputc) for _snputc
    printf1.o(i.__0sprintf$1) refers to printf1.o(i._printf_core) for _printf_core
    printf1.o(i.__0sprintf$1) refers to printf1.o(i._sputc) for _sputc
    printf1.o(i.__0vfprintf$1) refers to printf1.o(i._printf_core) for _printf_core
    printf1.o(i.__0vfprintf$1) refers to fputc.o(i.fputc) for fputc
    printf1.o(i.__0vprintf$1) refers to printf1.o(i._printf_core) for _printf_core
    printf1.o(i.__0vprintf$1) refers to fputc.o(i.fputc) for fputc
    printf1.o(i.__0vprintf$1) refers to stdout.o(.data) for __stdout
    printf1.o(i.__0vsnprintf$1) refers to printf1.o(i._printf_core) for _printf_core
    printf1.o(i.__0vsnprintf$1) refers to printf1.o(i._snputc) for _snputc
    printf1.o(i.__0vsprintf$1) refers to printf1.o(i._printf_core) for _printf_core
    printf1.o(i.__0vsprintf$1) refers to printf1.o(i._sputc) for _sputc
    printf1.o(i._printf_core) refers to uidiv.o(.text) for __aeabi_uidivmod
    printf2.o(i.__0fprintf$2) refers to printf2.o(i._printf_core) for _printf_core
    printf2.o(i.__0fprintf$2) refers to fputc.o(i.fputc) for fputc
    printf2.o(i.__0printf$2) refers to printf2.o(i._printf_core) for _printf_core
    printf2.o(i.__0printf$2) refers to fputc.o(i.fputc) for fputc
    printf2.o(i.__0printf$2) refers to stdout.o(.data) for __stdout
    printf2.o(i.__0snprintf$2) refers to printf2.o(i._printf_core) for _printf_core
    printf2.o(i.__0snprintf$2) refers to printf2.o(i._snputc) for _snputc
    printf2.o(i.__0sprintf$2) refers to printf2.o(i._printf_core) for _printf_core
    printf2.o(i.__0sprintf$2) refers to printf2.o(i._sputc) for _sputc
    printf2.o(i.__0vfprintf$2) refers to printf2.o(i._printf_core) for _printf_core
    printf2.o(i.__0vfprintf$2) refers to fputc.o(i.fputc) for fputc
    printf2.o(i.__0vprintf$2) refers to printf2.o(i._printf_core) for _printf_core
    printf2.o(i.__0vprintf$2) refers to fputc.o(i.fputc) for fputc
    printf2.o(i.__0vprintf$2) refers to stdout.o(.data) for __stdout
    printf2.o(i.__0vsnprintf$2) refers to printf2.o(i._printf_core) for _printf_core
    printf2.o(i.__0vsnprintf$2) refers to printf2.o(i._snputc) for _snputc
    printf2.o(i.__0vsprintf$2) refers to printf2.o(i._printf_core) for _printf_core
    printf2.o(i.__0vsprintf$2) refers to printf2.o(i._sputc) for _sputc
    printf3.o(i.__0fprintf$3) refers to printf3.o(i._printf_core) for _printf_core
    printf3.o(i.__0fprintf$3) refers to fputc.o(i.fputc) for fputc
    printf3.o(i.__0printf$3) refers to printf3.o(i._printf_core) for _printf_core
    printf3.o(i.__0printf$3) refers to fputc.o(i.fputc) for fputc
    printf3.o(i.__0printf$3) refers to stdout.o(.data) for __stdout
    printf3.o(i.__0snprintf$3) refers to printf3.o(i._printf_core) for _printf_core
    printf3.o(i.__0snprintf$3) refers to printf3.o(i._snputc) for _snputc
    printf3.o(i.__0sprintf$3) refers to printf3.o(i._printf_core) for _printf_core
    printf3.o(i.__0sprintf$3) refers to printf3.o(i._sputc) for _sputc
    printf3.o(i.__0vfprintf$3) refers to printf3.o(i._printf_core) for _printf_core
    printf3.o(i.__0vfprintf$3) refers to fputc.o(i.fputc) for fputc
    printf3.o(i.__0vprintf$3) refers to printf3.o(i._printf_core) for _printf_core
    printf3.o(i.__0vprintf$3) refers to fputc.o(i.fputc) for fputc
    printf3.o(i.__0vprintf$3) refers to stdout.o(.data) for __stdout
    printf3.o(i.__0vsnprintf$3) refers to printf3.o(i._printf_core) for _printf_core
    printf3.o(i.__0vsnprintf$3) refers to printf3.o(i._snputc) for _snputc
    printf3.o(i.__0vsprintf$3) refers to printf3.o(i._printf_core) for _printf_core
    printf3.o(i.__0vsprintf$3) refers to printf3.o(i._sputc) for _sputc
    printf3.o(i._printf_core) refers to uidiv.o(.text) for __aeabi_uidivmod
    printf4.o(i.__0fprintf$4) refers to printf4.o(i._printf_core) for _printf_core
    printf4.o(i.__0fprintf$4) refers to fputc.o(i.fputc) for fputc
    printf4.o(i.__0printf$4) refers to printf4.o(i._printf_core) for _printf_core
    printf4.o(i.__0printf$4) refers to fputc.o(i.fputc) for fputc
    printf4.o(i.__0printf$4) refers to stdout.o(.data) for __stdout
    printf4.o(i.__0snprintf$4) refers to printf4.o(i._printf_core) for _printf_core
    printf4.o(i.__0snprintf$4) refers to printf4.o(i._snputc) for _snputc
    printf4.o(i.__0sprintf$4) refers to printf4.o(i._printf_core) for _printf_core
    printf4.o(i.__0sprintf$4) refers to printf4.o(i._sputc) for _sputc
    printf4.o(i.__0vfprintf$4) refers to printf4.o(i._printf_core) for _printf_core
    printf4.o(i.__0vfprintf$4) refers to fputc.o(i.fputc) for fputc
    printf4.o(i.__0vprintf$4) refers to printf4.o(i._printf_core) for _printf_core
    printf4.o(i.__0vprintf$4) refers to fputc.o(i.fputc) for fputc
    printf4.o(i.__0vprintf$4) refers to stdout.o(.data) for __stdout
    printf4.o(i.__0vsnprintf$4) refers to printf4.o(i._printf_core) for _printf_core
    printf4.o(i.__0vsnprintf$4) refers to printf4.o(i._snputc) for _snputc
    printf4.o(i.__0vsprintf$4) refers to printf4.o(i._printf_core) for _printf_core
    printf4.o(i.__0vsprintf$4) refers to printf4.o(i._sputc) for _sputc
    printf4.o(i._printf_core) refers to uldiv.o(.text) for __aeabi_uldivmod
    printf5.o(i.__0fprintf$5) refers to printf5.o(i._printf_core) for _printf_core
    printf5.o(i.__0fprintf$5) refers to fputc.o(i.fputc) for fputc
    printf5.o(i.__0printf$5) refers to printf5.o(i._printf_core) for _printf_core
    printf5.o(i.__0printf$5) refers to fputc.o(i.fputc) for fputc
    printf5.o(i.__0printf$5) refers to stdout.o(.data) for __stdout
    printf5.o(i.__0snprintf$5) refers to printf5.o(i._printf_core) for _printf_core
    printf5.o(i.__0snprintf$5) refers to printf5.o(i._snputc) for _snputc
    printf5.o(i.__0sprintf$5) refers to printf5.o(i._printf_core) for _printf_core
    printf5.o(i.__0sprintf$5) refers to printf5.o(i._sputc) for _sputc
    printf5.o(i.__0vfprintf$5) refers to printf5.o(i._printf_core) for _printf_core
    printf5.o(i.__0vfprintf$5) refers to fputc.o(i.fputc) for fputc
    printf5.o(i.__0vprintf$5) refers to printf5.o(i._printf_core) for _printf_core
    printf5.o(i.__0vprintf$5) refers to fputc.o(i.fputc) for fputc
    printf5.o(i.__0vprintf$5) refers to stdout.o(.data) for __stdout
    printf5.o(i.__0vsnprintf$5) refers to printf5.o(i._printf_core) for _printf_core
    printf5.o(i.__0vsnprintf$5) refers to printf5.o(i._snputc) for _snputc
    printf5.o(i.__0vsprintf$5) refers to printf5.o(i._printf_core) for _printf_core
    printf5.o(i.__0vsprintf$5) refers to printf5.o(i._sputc) for _sputc
    printf5.o(i._printf_core) refers to uldiv.o(.text) for __aeabi_uldivmod
    printf6.o(i.__0fprintf$6) refers to printf6.o(i._printf_core) for _printf_core
    printf6.o(i.__0fprintf$6) refers to fputc.o(i.fputc) for fputc
    printf6.o(i.__0printf$6) refers to printf6.o(i._printf_core) for _printf_core
    printf6.o(i.__0printf$6) refers to fputc.o(i.fputc) for fputc
    printf6.o(i.__0printf$6) refers to stdout.o(.data) for __stdout
    printf6.o(i.__0snprintf$6) refers to printf6.o(i._printf_core) for _printf_core
    printf6.o(i.__0snprintf$6) refers to printf6.o(i._snputc) for _snputc
    printf6.o(i.__0sprintf$6) refers to printf6.o(i._printf_core) for _printf_core
    printf6.o(i.__0sprintf$6) refers to printf6.o(i._sputc) for _sputc
    printf6.o(i.__0vfprintf$6) refers to printf6.o(i._printf_core) for _printf_core
    printf6.o(i.__0vfprintf$6) refers to fputc.o(i.fputc) for fputc
    printf6.o(i.__0vprintf$6) refers to printf6.o(i._printf_core) for _printf_core
    printf6.o(i.__0vprintf$6) refers to fputc.o(i.fputc) for fputc
    printf6.o(i.__0vprintf$6) refers to stdout.o(.data) for __stdout
    printf6.o(i.__0vsnprintf$6) refers to printf6.o(i._printf_core) for _printf_core
    printf6.o(i.__0vsnprintf$6) refers to printf6.o(i._snputc) for _snputc
    printf6.o(i.__0vsprintf$6) refers to printf6.o(i._printf_core) for _printf_core
    printf6.o(i.__0vsprintf$6) refers to printf6.o(i._sputc) for _sputc
    printf6.o(i._printf_core) refers to printf6.o(i._printf_pre_padding) for _printf_pre_padding
    printf6.o(i._printf_core) refers to uidiv.o(.text) for __aeabi_uidivmod
    printf6.o(i._printf_core) refers to printf6.o(i._printf_post_padding) for _printf_post_padding
    printf7.o(i.__0fprintf$7) refers to printf7.o(i._printf_core) for _printf_core
    printf7.o(i.__0fprintf$7) refers to fputc.o(i.fputc) for fputc
    printf7.o(i.__0printf$7) refers to printf7.o(i._printf_core) for _printf_core
    printf7.o(i.__0printf$7) refers to fputc.o(i.fputc) for fputc
    printf7.o(i.__0printf$7) refers to stdout.o(.data) for __stdout
    printf7.o(i.__0snprintf$7) refers to printf7.o(i._printf_core) for _printf_core
    printf7.o(i.__0snprintf$7) refers to printf7.o(i._snputc) for _snputc
    printf7.o(i.__0sprintf$7) refers to printf7.o(i._printf_core) for _printf_core
    printf7.o(i.__0sprintf$7) refers to printf7.o(i._sputc) for _sputc
    printf7.o(i.__0vfprintf$7) refers to printf7.o(i._printf_core) for _printf_core
    printf7.o(i.__0vfprintf$7) refers to fputc.o(i.fputc) for fputc
    printf7.o(i.__0vprintf$7) refers to printf7.o(i._printf_core) for _printf_core
    printf7.o(i.__0vprintf$7) refers to fputc.o(i.fputc) for fputc
    printf7.o(i.__0vprintf$7) refers to stdout.o(.data) for __stdout
    printf7.o(i.__0vsnprintf$7) refers to printf7.o(i._printf_core) for _printf_core
    printf7.o(i.__0vsnprintf$7) refers to printf7.o(i._snputc) for _snputc
    printf7.o(i.__0vsprintf$7) refers to printf7.o(i._printf_core) for _printf_core
    printf7.o(i.__0vsprintf$7) refers to printf7.o(i._sputc) for _sputc
    printf7.o(i._printf_core) refers to printf7.o(i._printf_pre_padding) for _printf_pre_padding
    printf7.o(i._printf_core) refers to uldiv.o(.text) for __aeabi_uldivmod
    printf7.o(i._printf_core) refers to printf7.o(i._printf_post_padding) for _printf_post_padding
    printf8.o(i.__0fprintf$8) refers to printf8.o(i._printf_core) for _printf_core
    printf8.o(i.__0fprintf$8) refers to fputc.o(i.fputc) for fputc
    printf8.o(i.__0printf$8) refers to printf8.o(i._printf_core) for _printf_core
    printf8.o(i.__0printf$8) refers to fputc.o(i.fputc) for fputc
    printf8.o(i.__0printf$8) refers to stdout.o(.data) for __stdout
    printf8.o(i.__0snprintf$8) refers to printf8.o(i._printf_core) for _printf_core
    printf8.o(i.__0snprintf$8) refers to printf8.o(i._snputc) for _snputc
    printf8.o(i.__0sprintf$8) refers to printf8.o(i._printf_core) for _printf_core
    printf8.o(i.__0sprintf$8) refers to printf8.o(i._sputc) for _sputc
    printf8.o(i.__0vfprintf$8) refers to printf8.o(i._printf_core) for _printf_core
    printf8.o(i.__0vfprintf$8) refers to fputc.o(i.fputc) for fputc
    printf8.o(i.__0vprintf$8) refers to printf8.o(i._printf_core) for _printf_core
    printf8.o(i.__0vprintf$8) refers to fputc.o(i.fputc) for fputc
    printf8.o(i.__0vprintf$8) refers to stdout.o(.data) for __stdout
    printf8.o(i.__0vsnprintf$8) refers to printf8.o(i._printf_core) for _printf_core
    printf8.o(i.__0vsnprintf$8) refers to printf8.o(i._snputc) for _snputc
    printf8.o(i.__0vsprintf$8) refers to printf8.o(i._printf_core) for _printf_core
    printf8.o(i.__0vsprintf$8) refers to printf8.o(i._sputc) for _sputc
    printf8.o(i._printf_core) refers to printf8.o(i._printf_pre_padding) for _printf_pre_padding
    printf8.o(i._printf_core) refers to uldiv.o(.text) for __aeabi_uldivmod
    printf8.o(i._printf_core) refers to printf8.o(i._printf_post_padding) for _printf_post_padding
    printfa.o(i.__0fprintf) refers (Special) to iusefp.o(.text) for __I$use$fp
    printfa.o(i.__0fprintf) refers to printfa.o(i._printf_core) for _printf_core
    printfa.o(i.__0fprintf) refers to fputc.o(i.fputc) for fputc
    printfa.o(i.__0printf) refers (Special) to iusefp.o(.text) for __I$use$fp
    printfa.o(i.__0printf) refers to printfa.o(i._printf_core) for _printf_core
    printfa.o(i.__0printf) refers to fputc.o(i.fputc) for fputc
    printfa.o(i.__0printf) refers to stdout.o(.data) for __stdout
    printfa.o(i.__0snprintf) refers (Special) to iusefp.o(.text) for __I$use$fp
    printfa.o(i.__0snprintf) refers to printfa.o(i._printf_core) for _printf_core
    printfa.o(i.__0snprintf) refers to printfa.o(i._snputc) for _snputc
    printfa.o(i.__0sprintf) refers (Special) to iusefp.o(.text) for __I$use$fp
    printfa.o(i.__0sprintf) refers to printfa.o(i._printf_core) for _printf_core
    printfa.o(i.__0sprintf) refers to printfa.o(i._sputc) for _sputc
    printfa.o(i.__0vfprintf) refers (Special) to iusefp.o(.text) for __I$use$fp
    printfa.o(i.__0vfprintf) refers to printfa.o(i._printf_core) for _printf_core
    printfa.o(i.__0vfprintf) refers to fputc.o(i.fputc) for fputc
    printfa.o(i.__0vprintf) refers (Special) to iusefp.o(.text) for __I$use$fp
    printfa.o(i.__0vprintf) refers to printfa.o(i._printf_core) for _printf_core
    printfa.o(i.__0vprintf) refers to fputc.o(i.fputc) for fputc
    printfa.o(i.__0vprintf) refers to stdout.o(.data) for __stdout
    printfa.o(i.__0vsnprintf) refers (Special) to iusefp.o(.text) for __I$use$fp
    printfa.o(i.__0vsnprintf) refers to printfa.o(i._printf_core) for _printf_core
    printfa.o(i.__0vsnprintf) refers to printfa.o(i._snputc) for _snputc
    printfa.o(i.__0vsprintf) refers (Special) to iusefp.o(.text) for __I$use$fp
    printfa.o(i.__0vsprintf) refers to printfa.o(i._printf_core) for _printf_core
    printfa.o(i.__0vsprintf) refers to printfa.o(i._sputc) for _sputc
    printfa.o(i._fp_digits) refers (Special) to iusefp.o(.text) for __I$use$fp
    printfa.o(i._fp_digits) refers to dmul.o(.text) for __aeabi_dmul
    printfa.o(i._fp_digits) refers to ddiv.o(.text) for __aeabi_ddiv
    printfa.o(i._fp_digits) refers to cdrcmple.o(.text) for __aeabi_cdrcmple
    printfa.o(i._fp_digits) refers to dadd.o(.text) for __aeabi_dadd
    printfa.o(i._fp_digits) refers to dfixul.o(.text) for __aeabi_d2ulz
    printfa.o(i._fp_digits) refers to uldiv.o(.text) for __aeabi_uldivmod
    printfa.o(i._printf_core) refers (Special) to iusefp.o(.text) for __I$use$fp
    printfa.o(i._printf_core) refers to printfa.o(i._printf_pre_padding) for _printf_pre_padding
    printfa.o(i._printf_core) refers to uldiv.o(.text) for __aeabi_uldivmod
    printfa.o(i._printf_core) refers to printfa.o(i._printf_post_padding) for _printf_post_padding
    printfa.o(i._printf_core) refers to printfa.o(i._fp_digits) for _fp_digits
    printfa.o(i._printf_core) refers to uidiv.o(.text) for __aeabi_uidivmod
    printfa.o(i._printf_post_padding) refers (Special) to iusefp.o(.text) for __I$use$fp
    printfa.o(i._printf_pre_padding) refers (Special) to iusefp.o(.text) for __I$use$fp
    printfa.o(i._snputc) refers (Special) to iusefp.o(.text) for __I$use$fp
    printfa.o(i._sputc) refers (Special) to iusefp.o(.text) for __I$use$fp
    atoi.o(.text) refers to errno.o(i.__aeabi_errno_addr) for __aeabi_errno_addr
    atoi.o(.text) refers to strtol.o(.text) for strtol
    fadd.o(.text) refers (Special) to iusefp.o(.text) for __I$use$fp
    fadd.o(.text) refers to fepilogue.o(.text) for _float_epilogue
    fmul.o(.text) refers (Special) to iusefp.o(.text) for __I$use$fp
    fdiv.o(.text) refers (Special) to iusefp.o(.text) for __I$use$fp
    fdiv.o(.text) refers to fepilogue.o(.text) for _float_round
    dadd.o(.text) refers (Special) to iusefp.o(.text) for __I$use$fp
    dadd.o(.text) refers to llshl.o(.text) for __aeabi_llsl
    dadd.o(.text) refers to llsshr.o(.text) for __aeabi_lasr
    dadd.o(.text) refers to depilogue.o(.text) for _double_epilogue
    dmul.o(.text) refers (Special) to iusefp.o(.text) for __I$use$fp
    dmul.o(.text) refers to depilogue.o(.text) for _double_epilogue
    ddiv.o(.text) refers (Special) to iusefp.o(.text) for __I$use$fp
    ddiv.o(.text) refers to depilogue.o(.text) for _double_round
    fflti.o(.text) refers (Special) to iusefp.o(.text) for __I$use$fp
    fflti.o(.text) refers to fepilogue.o(.text) for _float_epilogue
    ffltui.o(.text) refers (Special) to iusefp.o(.text) for __I$use$fp
    ffltui.o(.text) refers to fepilogue.o(.text) for _float_epilogue
    dflti.o(.text) refers (Special) to iusefp.o(.text) for __I$use$fp
    dflti.o(.text) refers to depilogue.o(.text) for _double_epilogue
    dfltui.o(.text) refers (Special) to iusefp.o(.text) for __I$use$fp
    dfltui.o(.text) refers to depilogue.o(.text) for _double_epilogue
    ffixi.o(.text) refers (Special) to iusefp.o(.text) for __I$use$fp
    ffixui.o(.text) refers (Special) to iusefp.o(.text) for __I$use$fp
    dfixi.o(.text) refers (Special) to iusefp.o(.text) for __I$use$fp
    dfixi.o(.text) refers to llushr.o(.text) for __aeabi_llsr
    f2d.o(.text) refers (Special) to iusefp.o(.text) for __I$use$fp
    d2f.o(.text) refers (Special) to iusefp.o(.text) for __I$use$fp
    d2f.o(.text) refers to fepilogue.o(.text) for _float_round
    cfcmple.o(.text) refers (Special) to iusefp.o(.text) for __I$use$fp
    cfrcmple.o(.text) refers (Special) to iusefp.o(.text) for __I$use$fp
    cos_i.o(i.__kernel_cos) refers (Special) to iusefp.o(.text) for __I$use$fp
    cos_i.o(i.__kernel_cos) refers to dfixi.o(.text) for __aeabi_d2iz
    cos_i.o(i.__kernel_cos) refers to dmul.o(.text) for __aeabi_dmul
    cos_i.o(i.__kernel_cos) refers to poly.o(i.__kernel_poly) for __kernel_poly
    cos_i.o(i.__kernel_cos) refers to dadd.o(.text) for __aeabi_dsub
    cos_i.o(i.__kernel_cos) refers to dscalb.o(.text) for __ARM_scalbn
    cos_i.o(i.__kernel_cos) refers to cos_i.o(.constdata) for .constdata
    cos_i.o(.constdata) refers (Special) to iusefp.o(.text) for __I$use$fp
    dunder.o(i.__mathlib_dbl_underflow) refers to dscalb.o(.text) for __ARM_scalbn
    fpclassify.o(i.__ARM_fpclassify) refers (Special) to iusefp.o(.text) for __I$use$fp
    fpclassifyf.o(i.__ARM_fpclassifyf) refers (Special) to iusefp.o(.text) for __I$use$fp
    funder.o(i.__mathlib_flt_underflow) refers to fscalb.o(.text) for __ARM_scalbnf
    poly.o(i.__kernel_poly) refers (Special) to iusefp.o(.text) for __I$use$fp
    poly.o(i.__kernel_poly) refers to dmul.o(.text) for __aeabi_dmul
    poly.o(i.__kernel_poly) refers to dadd.o(.text) for __aeabi_dadd
    qnan.o(.constdata) refers (Special) to iusefp.o(.text) for __I$use$fp
    rred.o(i.__ieee754_rem_pio2) refers (Special) to iusefp.o(.text) for __I$use$fp
    rred.o(i.__ieee754_rem_pio2) refers to dadd.o(.text) for __aeabi_dsub
    rred.o(i.__ieee754_rem_pio2) refers to dmul.o(.text) for __aeabi_dmul
    rred.o(i.__ieee754_rem_pio2) refers to dfixi.o(.text) for __aeabi_d2iz
    rred.o(i.__ieee754_rem_pio2) refers to dflti.o(.text) for __aeabi_i2d
    rred.o(i.__ieee754_rem_pio2) refers to dfltui.o(.text) for __aeabi_ui2d
    rred.o(i.__ieee754_rem_pio2) refers to dscalb.o(.text) for __ARM_scalbn
    rred.o(i.__ieee754_rem_pio2) refers to rred.o(.constdata) for .constdata
    rred.o(i.__use_accurate_range_reduction) refers (Special) to iusefp.o(.text) for __I$use$fp
    rred.o(.constdata) refers (Special) to iusefp.o(.text) for __I$use$fp
    rredf.o(i.__mathlib_rredf2) refers (Special) to iusefp.o(.text) for __I$use$fp
    rredf.o(i.__mathlib_rredf2) refers to fflti.o(.text) for __aeabi_i2f
    rredf.o(i.__mathlib_rredf2) refers to ffltui.o(.text) for __aeabi_ui2f
    rredf.o(i.__mathlib_rredf2) refers to fscalb.o(.text) for __ARM_scalbnf
    rredf.o(i.__mathlib_rredf2) refers to fadd.o(.text) for __aeabi_fadd
    rredf.o(i.__mathlib_rredf2) refers to fmul.o(.text) for __aeabi_fmul
    rredf.o(i.__mathlib_rredf2) refers to rredf.o(.constdata) for .constdata
    rredf.o(.constdata) refers (Special) to iusefp.o(.text) for __I$use$fp
    sin_i.o(i.__kernel_sin) refers (Special) to iusefp.o(.text) for __I$use$fp
    sin_i.o(i.__kernel_sin) refers to fpclassify.o(i.__ARM_fpclassify) for __ARM_fpclassify
    sin_i.o(i.__kernel_sin) refers to dunder.o(i.__mathlib_dbl_underflow) for __mathlib_dbl_underflow
    sin_i.o(i.__kernel_sin) refers to dmul.o(.text) for __aeabi_dmul
    sin_i.o(i.__kernel_sin) refers to poly.o(i.__kernel_poly) for __kernel_poly
    sin_i.o(i.__kernel_sin) refers to dscalb.o(.text) for __ARM_scalbn
    sin_i.o(i.__kernel_sin) refers to dadd.o(.text) for __aeabi_dsub
    sin_i.o(i.__kernel_sin) refers to sin_i.o(.constdata) for .constdata
    sin_i.o(.constdata) refers (Special) to iusefp.o(.text) for __I$use$fp
    sin_i_x.o(i.____kernel_sin$lsc) refers (Special) to iusefp.o(.text) for __I$use$fp
    sin_i_x.o(i.____kernel_sin$lsc) refers to dmul.o(.text) for __aeabi_dmul
    sin_i_x.o(i.____kernel_sin$lsc) refers to poly.o(i.__kernel_poly) for __kernel_poly
    sin_i_x.o(i.____kernel_sin$lsc) refers to dscalb.o(.text) for __ARM_scalbn
    sin_i_x.o(i.____kernel_sin$lsc) refers to dadd.o(.text) for __aeabi_dsub
    sin_i_x.o(i.____kernel_sin$lsc) refers to sin_i_x.o(.constdata) for .constdata
    sin_i_x.o(.constdata) refers (Special) to iusefp.o(.text) for __I$use$fp
    sqrt.o(i.__softfp_sqrt) refers (Special) to iusefp.o(.text) for __I$use$fp
    sqrt.o(i.__softfp_sqrt) refers to dsqrt.o(.text) for _dsqrt
    sqrt.o(i.__softfp_sqrt) refers to errno.o(i.__set_errno) for __set_errno
    sqrt.o(i.sqrt) refers (Special) to iusefp.o(.text) for __I$use$fp
    sqrt.o(i.sqrt) refers to dsqrt.o(.text) for _dsqrt
    sqrt.o(i.sqrt) refers to errno.o(i.__set_errno) for __set_errno
    sqrt_x.o(i.____softfp_sqrt$lsc) refers (Special) to iusefp.o(.text) for __I$use$fp
    sqrt_x.o(i.____softfp_sqrt$lsc) refers to cdcmple.o(.text) for __aeabi_cdcmple
    sqrt_x.o(i.____softfp_sqrt$lsc) refers to errno.o(i.__set_errno) for __set_errno
    sqrt_x.o(i.____softfp_sqrt$lsc) refers to dsqrt.o(.text) for _dsqrt
    sqrt_x.o(i.__sqrt$lsc) refers (Special) to iusefp.o(.text) for __I$use$fp
    sqrt_x.o(i.__sqrt$lsc) refers to cdcmple.o(.text) for __aeabi_cdcmple
    sqrt_x.o(i.__sqrt$lsc) refers to errno.o(i.__set_errno) for __set_errno
    sqrt_x.o(i.__sqrt$lsc) refers to dsqrt.o(.text) for _dsqrt
    entry2.o(.ARM.Collect$$$$00000001) refers to entry2.o(.ARM.Collect$$$$00002712) for __lit__00000000
    entry2.o(.ARM.Collect$$$$00002712) refers to startup_stm32f10x_md.o(STACK) for __initial_sp
    entry2.o(__vectab_stack_and_reset_area) refers to startup_stm32f10x_md.o(STACK) for __initial_sp
    entry2.o(__vectab_stack_and_reset_area) refers to entry.o(.ARM.Collect$$$$00000000) for __main
    entry5.o(.ARM.Collect$$$$00000004) refers to init.o(.text) for __scatterload
    entry8.o(.ARM.Collect$$$$00000009) refers to main.o(.text) for main
    fputc.o(i.fputc) refers (Special) to iusesemip.o(.text) for __I$use$semihosting$fputc
    fputc.o(i.fputc) refers (Special) to semi.o(.text) for __semihosting_library_function
    uldiv.o(.text) refers to llushr.o(.text) for __aeabi_llsr
    uldiv.o(.text) refers to llshl.o(.text) for __aeabi_llsl
    errno.o(i.__aeabi_errno_addr) refers to errno.o(.data) for .data
    errno.o(i.__read_errno) refers to errno.o(.data) for .data
    errno.o(i.__set_errno) refers to errno.o(.data) for .data
    strtol.o(.text) refers to ctype_o.o(.text) for __rt_ctype_table
    strtol.o(.text) refers to _strtoul.o(.text) for _strtoul
    strtol.o(.text) refers to errno.o(i.__aeabi_errno_addr) for __aeabi_errno_addr
    fsqrt.o(.text) refers to fepilogue.o(.text) for _float_round
    frnd.o(.text) refers to fepilogue.o(.text) for _float_round
    depilogue.o(.text) refers to llshl.o(.text) for __aeabi_llsl
    depilogue.o(.text) refers to llushr.o(.text) for __aeabi_llsr
    dfixul.o(.text) refers to llushr.o(.text) for __aeabi_llsr
    dfixul.o(.text) refers to llshl.o(.text) for __aeabi_llsl
    init.o(.text) refers to entry5.o(.ARM.Collect$$$$00000004) for __main_after_scatterload
    ctype_o.o(.text) refers to ctype_o.o(.constdata) for .constdata
    ctype_o.o(.constdata) refers to ctype_o.o(.constdata) for __ctype_table
    isalnum_o.o(.text) refers to ctype_o.o(.text) for __rt_ctype_table
    isalpha_o.o(.text) refers to ctype_o.o(.text) for __rt_ctype_table
    isblank_o.o(.text) refers to ctype_o.o(.constdata) for __ctype_table
    iscntrl_o.o(.text) refers to ctype_o.o(.text) for __rt_ctype_table
    isdigit_o.o(.text) refers to ctype_o.o(.text) for __rt_ctype_table
    isgraph_o.o(.text) refers to ctype_o.o(.text) for __rt_ctype_table
    islower_o.o(.text) refers to ctype_o.o(.text) for __rt_ctype_table
    isprint_o.o(.text) refers to ctype_o.o(.text) for __rt_ctype_table
    ispunct_o.o(.text) refers to ctype_o.o(.text) for __rt_ctype_table
    isspace_o.o(.text) refers to ctype_o.o(.text) for __rt_ctype_table
    isupper_o.o(.text) refers to ctype_o.o(.text) for __rt_ctype_table
    isxdigit_o.o(.text) refers to ctype_o.o(.text) for __rt_ctype_table
    _strtoul.o(.text) refers to _chval.o(.text) for _chval
    _strtoul.o(.text) refers to errno.o(i.__aeabi_errno_addr) for __aeabi_errno_addr
    dsqrt.o(.text) refers to llushr.o(.text) for __aeabi_llsr
    dsqrt.o(.text) refers to depilogue.o(.text) for _double_round


==============================================================================

Removing Unused input sections from the image.

    Removing buzzer.o(.bss), (11 bytes).
    Removing core_cm3.o(.emb_text), (32 bytes).
    Removing startup_stm32f10x_md.o(HEAP), (512 bytes).
    Removing dfixul.o(.text), (48 bytes).
    Removing cdcmple.o(.text), (40 bytes).

5 unused section(s) (total 643 bytes) removed from the image.

==============================================================================

Image Symbol Table

    Local Symbols

    Symbol Name                              Value     Ov Type        Size  Object(Section)

    ../../../cmprslib/zerorunl2.c            0x00000000   Number         0  __dczerorl2.o ABSOLUTE
    ../../atan2f.c                           0x00000000   Number         0  atan2f_x.o ABSOLUTE
    ../../atan2f.c                           0x00000000   Number         0  atan2f.o ABSOLUTE
    ../../cos_i.c                            0x00000000   Number         0  cos_i.o ABSOLUTE
    ../../cosf.c                             0x00000000   Number         0  cosf_x.o ABSOLUTE
    ../../cosf.c                             0x00000000   Number         0  cosf.o ABSOLUTE
    ../../dunder.c                           0x00000000   Number         0  dunder.o ABSOLUTE
    ../../fpclassify.c                       0x00000000   Number         0  fpclassify.o ABSOLUTE
    ../../fpclassifyf.c                      0x00000000   Number         0  fpclassifyf.o ABSOLUTE
    ../../funder.c                           0x00000000   Number         0  funder.o ABSOLUTE
    ../../microlib/ctype/ctype.c             0x00000000   Number         0  islower_o.o ABSOLUTE
    ../../microlib/ctype/ctype.c             0x00000000   Number         0  isupper_o.o ABSOLUTE
    ../../microlib/ctype/ctype.c             0x00000000   Number         0  isblank_o.o ABSOLUTE
    ../../microlib/ctype/ctype.c             0x00000000   Number         0  isgraph_o.o ABSOLUTE
    ../../microlib/ctype/ctype.c             0x00000000   Number         0  isxdigit_o.o ABSOLUTE
    ../../microlib/ctype/ctype.c             0x00000000   Number         0  isspace_o.o ABSOLUTE
    ../../microlib/ctype/ctype.c             0x00000000   Number         0  isalpha_o.o ABSOLUTE
    ../../microlib/ctype/ctype.c             0x00000000   Number         0  isprint_o.o ABSOLUTE
    ../../microlib/ctype/ctype.c             0x00000000   Number         0  isalnum_o.o ABSOLUTE
    ../../microlib/ctype/ctype.c             0x00000000   Number         0  ctype_o.o ABSOLUTE
    ../../microlib/ctype/ctype.c             0x00000000   Number         0  ispunct_o.o ABSOLUTE
    ../../microlib/ctype/ctype.c             0x00000000   Number         0  isdigit_o.o ABSOLUTE
    ../../microlib/ctype/ctype.c             0x00000000   Number         0  iscntrl_o.o ABSOLUTE
    ../../microlib/ctype/tolower.c           0x00000000   Number         0  tolower.o ABSOLUTE
    ../../microlib/ctype/toupper.c           0x00000000   Number         0  toupper.o ABSOLUTE
    ../../microlib/d2f.c                     0x00000000   Number         0  d2f.o ABSOLUTE
    ../../microlib/division.c                0x00000000   Number         0  uidiv.o ABSOLUTE
    ../../microlib/division.c                0x00000000   Number         0  uldiv.o ABSOLUTE
    ../../microlib/errno.c                   0x00000000   Number         0  errno.o ABSOLUTE
    ../../microlib/f2d.c                     0x00000000   Number         0  f2d.o ABSOLUTE
    ../../microlib/fpadd.c                   0x00000000   Number         0  dadd.o ABSOLUTE
    ../../microlib/fpadd.c                   0x00000000   Number         0  fadd.o ABSOLUTE
    ../../microlib/fpdiv.c                   0x00000000   Number         0  fdiv.o ABSOLUTE
    ../../microlib/fpdiv.c                   0x00000000   Number         0  ddiv.o ABSOLUTE
    ../../microlib/fpepilogue.c              0x00000000   Number         0  depilogue.o ABSOLUTE
    ../../microlib/fpepilogue.c              0x00000000   Number         0  fepilogue.o ABSOLUTE
    ../../microlib/fpfix.c                   0x00000000   Number         0  ffixui.o ABSOLUTE
    ../../microlib/fpfix.c                   0x00000000   Number         0  ffixi.o ABSOLUTE
    ../../microlib/fpfix.c                   0x00000000   Number         0  dfixul.o ABSOLUTE
    ../../microlib/fpfix.c                   0x00000000   Number         0  dfixi.o ABSOLUTE
    ../../microlib/fpflt.c                   0x00000000   Number         0  dflti.o ABSOLUTE
    ../../microlib/fpflt.c                   0x00000000   Number         0  ffltui.o ABSOLUTE
    ../../microlib/fpflt.c                   0x00000000   Number         0  fflti.o ABSOLUTE
    ../../microlib/fpflt.c                   0x00000000   Number         0  dfltui.o ABSOLUTE
    ../../microlib/fpmul.c                   0x00000000   Number         0  dmul.o ABSOLUTE
    ../../microlib/fpmul.c                   0x00000000   Number         0  fmul.o ABSOLUTE
    ../../microlib/fprnd.c                   0x00000000   Number         0  frnd.o ABSOLUTE
    ../../microlib/fpscalb.c                 0x00000000   Number         0  fscalb.o ABSOLUTE
    ../../microlib/fpscalb.c                 0x00000000   Number         0  dscalb.o ABSOLUTE
    ../../microlib/fpsqrt.c                  0x00000000   Number         0  fsqrt.o ABSOLUTE
    ../../microlib/fpsqrt.c                  0x00000000   Number         0  dsqrt.o ABSOLUTE
    ../../microlib/init/entry.s              0x00000000   Number         0  entry2.o ABSOLUTE
    ../../microlib/init/entry.s              0x00000000   Number         0  entry.o ABSOLUTE
    ../../microlib/init/entry.s              0x00000000   Number         0  entry8.o ABSOLUTE
    ../../microlib/init/entry.s              0x00000000   Number         0  entry7b.o ABSOLUTE
    ../../microlib/init/entry.s              0x00000000   Number         0  entry7a.o ABSOLUTE
    ../../microlib/init/entry.s              0x00000000   Number         0  entry5.o ABSOLUTE
    ../../microlib/longlong.c                0x00000000   Number         0  llsshr.o ABSOLUTE
    ../../microlib/longlong.c                0x00000000   Number         0  llushr.o ABSOLUTE
    ../../microlib/longlong.c                0x00000000   Number         0  llshl.o ABSOLUTE
    ../../microlib/printf/printf.c           0x00000000   Number         0  printfb.o ABSOLUTE
    ../../microlib/printf/printf.c           0x00000000   Number         0  printf4.o ABSOLUTE
    ../../microlib/printf/printf.c           0x00000000   Number         0  printf8.o ABSOLUTE
    ../../microlib/printf/printf.c           0x00000000   Number         0  printf3.o ABSOLUTE
    ../../microlib/printf/printf.c           0x00000000   Number         0  printf2.o ABSOLUTE
    ../../microlib/printf/printf.c           0x00000000   Number         0  printf1.o ABSOLUTE
    ../../microlib/printf/printf.c           0x00000000   Number         0  printf0.o ABSOLUTE
    ../../microlib/printf/printf.c           0x00000000   Number         0  printfa.o ABSOLUTE
    ../../microlib/printf/printf.c           0x00000000   Number         0  printf7.o ABSOLUTE
    ../../microlib/printf/printf.c           0x00000000   Number         0  printf6.o ABSOLUTE
    ../../microlib/printf/printf.c           0x00000000   Number         0  printf5.o ABSOLUTE
    ../../microlib/printf/stubs.s            0x00000000   Number         0  stubs.o ABSOLUTE
    ../../microlib/stdio/fputc.c             0x00000000   Number         0  fputc.o ABSOLUTE
    ../../microlib/stdio/semi.s              0x00000000   Number         0  semi.o ABSOLUTE
    ../../microlib/stdio/streams.c           0x00000000   Number         0  stdout.o ABSOLUTE
    ../../microlib/stdlib/bsearch.c          0x00000000   Number         0  bsearch.o ABSOLUTE
    ../../microlib/string/memcpy.c           0x00000000   Number         0  memcpya.o ABSOLUTE
    ../../microlib/string/memcpy.c           0x00000000   Number         0  memcpyb.o ABSOLUTE
    ../../microlib/string/memset.c           0x00000000   Number         0  memseta.o ABSOLUTE
    ../../microlib/string/strchr.c           0x00000000   Number         0  strchr.o ABSOLUTE
    ../../microlib/string/strlen.c           0x00000000   Number         0  strlen.o ABSOLUTE
    ../../microlib/string/strncasecmp.c      0x00000000   Number         0  strncasecmp.o ABSOLUTE
    ../../microlib/string/strstr.c           0x00000000   Number         0  strstr.o ABSOLUTE
    ../../microlib/stubs.s                   0x00000000   Number         0  iusesemip.o ABSOLUTE
    ../../microlib/stubs.s                   0x00000000   Number         0  iusefp.o ABSOLUTE
    ../../poly.c                             0x00000000   Number         0  poly.o ABSOLUTE
    ../../pow.c                              0x00000000   Number         0  pow.o ABSOLUTE
    ../../pow.c                              0x00000000   Number         0  pow_x.o ABSOLUTE
    ../../qnan.c                             0x00000000   Number         0  qnan.o ABSOLUTE
    ../../rred.c                             0x00000000   Number         0  rred.o ABSOLUTE
    ../../rredf.c                            0x00000000   Number         0  rredf.o ABSOLUTE
    ../../scanf.c                            0x00000000   Number         0  strtol.o ABSOLUTE
    ../../scanf.c                            0x00000000   Number         0  _strtoul.o ABSOLUTE
    ../../scanf.c                            0x00000000   Number         0  atoi.o ABSOLUTE
    ../../scanf.c                            0x00000000   Number         0  _chval.o ABSOLUTE
    ../../sin.c                              0x00000000   Number         0  sin_x.o ABSOLUTE
    ../../sin.c                              0x00000000   Number         0  sin.o ABSOLUTE
    ../../sin_i.c                            0x00000000   Number         0  sin_i.o ABSOLUTE
    ../../sin_i.c                            0x00000000   Number         0  sin_i_x.o ABSOLUTE
    ../../sinf.c                             0x00000000   Number         0  sinf_x.o ABSOLUTE
    ../../sinf.c                             0x00000000   Number         0  sinf.o ABSOLUTE
    ../../sqrt.c                             0x00000000   Number         0  sqrt.o ABSOLUTE
    ../../sqrt.c                             0x00000000   Number         0  sqrt_x.o ABSOLUTE
    ../../sqrtf.c                            0x00000000   Number         0  sqrtf_x.o ABSOLUTE
    ../../sqrtf.c                            0x00000000   Number         0  sqrtf.o ABSOLUTE
    cdcmple.s                                0x00000000   Number         0  cdcmple.o ABSOLUTE
    cdrcmple.s                               0x00000000   Number         0  cdrcmple.o ABSOLUTE
    cfcmple.s                                0x00000000   Number         0  cfcmple.o ABSOLUTE
    cfrcmple.s                               0x00000000   Number         0  cfrcmple.o ABSOLUTE
    dc.s                                     0x00000000   Number         0  dc.o ABSOLUTE
    handlers.s                               0x00000000   Number         0  handlers.o ABSOLUTE
    init.s                                   0x00000000   Number         0  init.o ABSOLUTE
    lib\CMSIS\CM3\CoreSupport\core_cm3.c     0x00000000   Number         0  core_cm3.o ABSOLUTE
    lib\CMSIS\CM3\DeviceSupport\ST\STM32F10x\system_stm32f10x.c 0x00000000   Number         0  system_stm32f10x.o ABSOLUTE
    lib\STM32F10x_StdPeriph_Driver\src\misc.c 0x00000000   Number         0  misc.o ABSOLUTE
    lib\STM32F10x_StdPeriph_Driver\src\stm32f10x_adc.c 0x00000000   Number         0  stm32f10x_adc.o ABSOLUTE
    lib\STM32F10x_StdPeriph_Driver\src\stm32f10x_dma.c 0x00000000   Number         0  stm32f10x_dma.o ABSOLUTE
    lib\STM32F10x_StdPeriph_Driver\src\stm32f10x_exti.c 0x00000000   Number         0  stm32f10x_exti.o ABSOLUTE
    lib\STM32F10x_StdPeriph_Driver\src\stm32f10x_flash.c 0x00000000   Number         0  stm32f10x_flash.o ABSOLUTE
    lib\STM32F10x_StdPeriph_Driver\src\stm32f10x_gpio.c 0x00000000   Number         0  stm32f10x_gpio.o ABSOLUTE
    lib\STM32F10x_StdPeriph_Driver\src\stm32f10x_i2c.c 0x00000000   Number         0  stm32f10x_i2c.o ABSOLUTE
    lib\STM32F10x_StdPeriph_Driver\src\stm32f10x_rcc.c 0x00000000   Number         0  stm32f10x_rcc.o ABSOLUTE
    lib\STM32F10x_StdPeriph_Driver\src\stm32f10x_tim.c 0x00000000   Number         0  stm32f10x_tim.o ABSOLUTE
    lib\STM32F10x_StdPeriph_Driver\src\stm32f10x_usart.c 0x00000000   Number         0  stm32f10x_usart.o ABSOLUTE
    lib\\CMSIS\\CM3\\CoreSupport\\core_cm3.c 0x00000000   Number         0  core_cm3.o ABSOLUTE
    src\baseflight_startups\startup_stm32f10x_md.s 0x00000000   Number         0  startup_stm32f10x_md.o ABSOLUTE
    src\buzzer.c                             0x00000000   Number         0  buzzer.o ABSOLUTE
    src\cli.c                                0x00000000   Number         0  cli.o ABSOLUTE
    src\config.c                             0x00000000   Number         0  config.o ABSOLUTE
    src\drv_adc.c                            0x00000000   Number         0  drv_adc.o ABSOLUTE
    src\drv_adxl345.c                        0x00000000   Number         0  drv_adxl345.o ABSOLUTE
    src\drv_bmp085.c                         0x00000000   Number         0  drv_bmp085.o ABSOLUTE
    src\drv_hmc5883l.c                       0x00000000   Number         0  drv_hmc5883l.o ABSOLUTE
    src\drv_i2c.c                            0x00000000   Number         0  drv_i2c.o ABSOLUTE
    src\drv_ledring.c                        0x00000000   Number         0  drv_ledring.o ABSOLUTE
    src\drv_mma845x.c                        0x00000000   Number         0  drv_mma845x.o ABSOLUTE
    src\drv_mpu3050.c                        0x00000000   Number         0  drv_mpu3050.o ABSOLUTE
    src\drv_mpu6050.c                        0x00000000   Number         0  drv_mpu6050.o ABSOLUTE
    src\drv_pwm.c                            0x00000000   Number         0  drv_pwm.o ABSOLUTE
    src\drv_system.c                         0x00000000   Number         0  drv_system.o ABSOLUTE
    src\drv_uart.c                           0x00000000   Number         0  drv_uart.o ABSOLUTE
    src\gps.c                                0x00000000   Number         0  gps.o ABSOLUTE
    src\imu.c                                0x00000000   Number         0  imu.o ABSOLUTE
    src\main.c                               0x00000000   Number         0  main.o ABSOLUTE
    src\mixer.c                              0x00000000   Number         0  mixer.o ABSOLUTE
    src\mw.c                                 0x00000000   Number         0  mw.o ABSOLUTE
    src\sensors.c                            0x00000000   Number         0  sensors.o ABSOLUTE
    src\serial.c                             0x00000000   Number         0  serial.o ABSOLUTE
    src\spektrum.c                           0x00000000   Number         0  spektrum.o ABSOLUTE
    src\wificontroller.c                     0x00000000   Number         0  wificontroller.o ABSOLUTE
    RESET                                    0x08000000   Section      236  startup_stm32f10x_md.o(RESET)
    .ARM.Collect$$$$00000000                 0x080000ec   Section        0  entry.o(.ARM.Collect$$$$00000000)
    .ARM.Collect$$$$00000001                 0x080000ec   Section        4  entry2.o(.ARM.Collect$$$$00000001)
    .ARM.Collect$$$$00000004                 0x080000f0   Section        4  entry5.o(.ARM.Collect$$$$00000004)
    .ARM.Collect$$$$00000008                 0x080000f4   Section        0  entry7b.o(.ARM.Collect$$$$00000008)
    .ARM.Collect$$$$00000009                 0x080000f4   Section        8  entry8.o(.ARM.Collect$$$$00000009)
    .ARM.Collect$$$$00002712                 0x080000fc   Section        4  entry2.o(.ARM.Collect$$$$00002712)
    __lit__00000000                          0x080000fc   Data           4  entry2.o(.ARM.Collect$$$$00002712)
    .text                                    0x08000100   Section        0  cli.o(.text)
    i2a                                      0x08000101   Thumb Code    48  cli.o(.text)
    cliPrompt                                0x0800016d   Thumb Code    10  cli.o(.text)
    cliCompare                               0x08000177   Thumb Code    34  cli.o(.text)
    cliDefaults                              0x08000199   Thumb Code    36  cli.o(.text)
    cliSave                                  0x080001bd   Thumb Code    36  cli.o(.text)
    cliExit                                  0x080001e1   Thumb Code    36  cli.o(.text)
    cliFeature                               0x08000205   Thumb Code   276  cli.o(.text)
    cliHelp                                  0x08000319   Thumb Code    78  cli.o(.text)
    cliMap                                   0x08000367   Thumb Code   138  cli.o(.text)
    cliMixer                                 0x080003f1   Thumb Code   190  cli.o(.text)
    cliPrintVar                              0x080004af   Thumb Code    76  cli.o(.text)
    cliSetVar                                0x080004fb   Thumb Code   482  cli.o(.text)
    cliSet                                   0x080006dd   Thumb Code   270  cli.o(.text)
    cliStatus                                0x080007eb   Thumb Code   250  cli.o(.text)
    cliVersion                               0x080008e5   Thumb Code    12  cli.o(.text)
    .text                                    0x08000cc0   Section        0  config.o(.text)
    .text                                    0x080011e0   Section        0  imu.o(.text)
    _atan2f                                  0x0800120d   Thumb Code    44  imu.o(.text)
    getEstimatedAttitude                     0x080012b9   Thumb Code   914  imu.o(.text)
    .text                                    0x08001a10   Section        0  main.o(.text)
    .text                                    0x08001be4   Section        0  mixer.o(.text)
    .text                                    0x08002f28   Section        0  mw.o(.text)
    .text                                    0x08004330   Section        0  sensors.o(.text)
    ACC_Common                               0x08004513   Thumb Code   610  sensors.o(.text)
    GYRO_Common                              0x08004881   Thumb Code   250  sensors.o(.text)
    Mag_getRawADC                            0x08004993   Thumb Code    38  sensors.o(.text)
    .text                                    0x08004d8c   Section        0  serial.o(.text)
    .text                                    0x08005624   Section        0  gps.o(.text)
    wrap_18000                               0x08005625   Thumb Code    26  gps.o(.text)
    check_missed_wp                          0x0800563f   Thumb Code    46  gps.o(.text)
    AC_PID_get_integrator                    0x0800566d   Thumb Code     6  gps.o(.text)
    AC_PID_set_integrator                    0x08005673   Thumb Code     4  gps.o(.text)
    AC_PID_get_d                             0x08005677   Thumb Code   236  gps.o(.text)
    AC_PID_get_i                             0x08005763   Thumb Code    94  gps.o(.text)
    AC_PID_get_p                             0x080057c1   Thumb Code    34  gps.o(.text)
    wrap_36000                               0x080057e3   Thumb Code    22  gps.o(.text)
    GPS_update_crosstrack                    0x080057f9   Thumb Code   206  gps.o(.text)
    GPS_calc_nav_rate                        0x080058c7   Thumb Code   406  gps.o(.text)
    GPS_calc_desired_speed                   0x08005a5d   Thumb Code   132  gps.o(.text)
    GPS_calc_poshold                         0x08005ae1   Thumb Code   272  gps.o(.text)
    GPS_calc_location_error                  0x08005bf1   Thumb Code    58  gps.o(.text)
    GPS_distance_cm_bearing                  0x08005c2b   Thumb Code   160  gps.o(.text)
    GPS_calc_velocity                        0x08005ccb   Thumb Code   196  gps.o(.text)
    GPS_calc_longitude_scaling               0x08005d8f   Thumb Code    64  gps.o(.text)
    hex_c                                    0x08005dcf   Thumb Code    20  gps.o(.text)
    grab_fields                              0x08005de3   Thumb Code    74  gps.o(.text)
    GPS_coord_to_degrees                     0x08005e2d   Thumb Code   246  gps.o(.text)
    GPS_newFrame                             0x08005f23   Thumb Code   534  gps.o(.text)
    GPS_NewData                              0x08006139   Thumb Code   806  gps.o(.text)
    GPS_set_pids                             0x0800645f   Thumb Code   180  gps.o(.text)
    AC_PID_reset                             0x0800652b   Thumb Code    10  gps.o(.text)
    .text                                    0x08006660   Section        0  spektrum.o(.text)
    spektrumDataReceive                      0x08006661   Thumb Code    90  spektrum.o(.text)
    .text                                    0x080067b0   Section        0  buzzer.o(.text)
    .text                                    0x08006a7c   Section        0  wificontroller.o(.text)
    wifiDataReceive                          0x08006aab   Thumb Code   188  wificontroller.o(.text)
    .text                                    0x08006c34   Section        0  drv_adc.o(.text)
    .text                                    0x08006d10   Section        0  drv_adxl345.o(.text)
    adxl345Align                             0x08006d11   Thumb Code     2  drv_adxl345.o(.text)
    adxl345Read                              0x08006d13   Thumb Code   200  drv_adxl345.o(.text)
    adxl345Init                              0x08006ddb   Thumb Code    94  drv_adxl345.o(.text)
    .text                                    0x08006e90   Section        0  drv_bmp085.o(.text)
    bmp085_get_cal_param                     0x08006ead   Thumb Code   238  drv_bmp085.o(.text)
    .text                                    0x08007350   Section        0  drv_hmc5883l.o(.text)
    .text                                    0x08007420   Section        0  drv_i2c.o(.text)
    i2cUnstick                               0x08007421   Thumb Code   194  drv_i2c.o(.text)
    i2c_er_handler                           0x08007591   Thumb Code   162  drv_i2c.o(.text)
    i2c_ev_handler                           0x0800763b   Thumb Code   982  drv_i2c.o(.text)
    .text                                    0x08007bf0   Section        0  drv_mpu3050.o(.text)
    mpu3050Align                             0x08007bf1   Thumb Code    46  drv_mpu3050.o(.text)
    mpu3050Read                              0x08007c1f   Thumb Code    66  drv_mpu3050.o(.text)
    mpu3050Init                              0x08007c61   Thumb Code    76  drv_mpu3050.o(.text)
    mpu3050ReadTemp                          0x08007d3f   Thumb Code    46  drv_mpu3050.o(.text)
    .text                                    0x08007d7c   Section        0  drv_pwm.o(.text)
    pwmIRQHandler                            0x08007d7d   Thumb Code   236  drv_pwm.o(.text)
    ppmIRQHandler                            0x08007e69   Thumb Code   160  drv_pwm.o(.text)
    pwmInitializeInput                       0x08007f2f   Thumb Code   386  drv_pwm.o(.text)
    .text                                    0x08008398   Section        0  drv_system.o(.text)
    cycleCounterInit                         0x08008399   Thumb Code    26  drv_system.o(.text)
    .text                                    0x080085d8   Section        0  drv_uart.o(.text)
    uartTxDMA                                0x080085d9   Thumb Code    80  drv_uart.o(.text)
    .text                                    0x080088e4   Section        0  drv_ledring.o(.text)
    .text                                    0x08008a44   Section        0  drv_mpu6050.o(.text)
    mpu6050GyroAlign                         0x08008a45   Thumb Code    46  drv_mpu6050.o(.text)
    mpu6050GyroRead                          0x08008a73   Thumb Code    66  drv_mpu6050.o(.text)
    mpu6050GyroInit                          0x08008ab5   Thumb Code    60  drv_mpu6050.o(.text)
    mpu6050AccAlign                          0x08008af1   Thumb Code    60  drv_mpu6050.o(.text)
    mpu6050AccRead                           0x08008b2d   Thumb Code    66  drv_mpu6050.o(.text)
    mpu6050AccInit                           0x08008b6f   Thumb Code    66  drv_mpu6050.o(.text)
    .text                                    0x08008c28   Section        0  drv_mma845x.o(.text)
    mma8452Align                             0x08008c29   Thumb Code    48  drv_mma845x.o(.text)
    mma8452Read                              0x08008c59   Thumb Code    90  drv_mma845x.o(.text)
    mma8452Init                              0x08008cb3   Thumb Code    92  drv_mma845x.o(.text)
    .text                                    0x08008d68   Section        0  system_stm32f10x.o(.text)
    SetSysClockTo72                          0x08008dff   Thumb Code   138  system_stm32f10x.o(.text)
    .text                                    0x08008ea8   Section        0  misc.o(.text)
    .text                                    0x08008f58   Section        0  stm32f10x_adc.o(.text)
    .text                                    0x0800927c   Section        0  stm32f10x_dma.o(.text)
    .text                                    0x08009444   Section        0  stm32f10x_exti.o(.text)
    .text                                    0x0800952c   Section        0  stm32f10x_i2c.o(.text)
    .text                                    0x0800983c   Section        0  stm32f10x_rcc.o(.text)
    .text                                    0x08009af8   Section        0  stm32f10x_tim.o(.text)
    TI2_Config                               0x08009e73   Thumb Code   162  stm32f10x_tim.o(.text)
    TI1_Config                               0x08009f25   Thumb Code    84  stm32f10x_tim.o(.text)
    .text                                    0x0800a560   Section        0  stm32f10x_usart.o(.text)
    .text                                    0x0800a890   Section        0  stm32f10x_gpio.o(.text)
    .text                                    0x0800aafc   Section        0  stm32f10x_flash.o(.text)
    .text                                    0x0800af78   Section      124  startup_stm32f10x_md.o(.text)
    .text                                    0x0800aff4   Section        0  toupper.o(.text)
    .text                                    0x0800b000   Section        0  bsearch.o(.text)
    .text                                    0x0800b046   Section        0  memcpya.o(.text)
    .text                                    0x0800b06a   Section        0  memseta.o(.text)
    .text                                    0x0800b090   Section        0  strstr.o(.text)
    .text                                    0x0800b0bc   Section        0  strchr.o(.text)
    .text                                    0x0800b0ce   Section        0  strlen.o(.text)
    .text                                    0x0800b0de   Section        0  strncasecmp.o(.text)
    .text                                    0x0800b110   Section        0  atoi.o(.text)
    .text                                    0x0800b12a   Section        0  fadd.o(.text)
    .text                                    0x0800b1da   Section        0  fmul.o(.text)
    .text                                    0x0800b246   Section        0  fdiv.o(.text)
    .text                                    0x0800b2c6   Section        0  dadd.o(.text)
    .text                                    0x0800b412   Section        0  dmul.o(.text)
    .text                                    0x0800b4f2   Section        0  ddiv.o(.text)
    .text                                    0x0800b5d0   Section        0  fflti.o(.text)
    .text                                    0x0800b5e2   Section        0  ffltui.o(.text)
    .text                                    0x0800b5ec   Section        0  dflti.o(.text)
    .text                                    0x0800b60e   Section        0  dfltui.o(.text)
    .text                                    0x0800b628   Section        0  ffixi.o(.text)
    .text                                    0x0800b65a   Section        0  ffixui.o(.text)
    .text                                    0x0800b682   Section        0  dfixi.o(.text)
    .text                                    0x0800b6c0   Section        0  f2d.o(.text)
    .text                                    0x0800b6ec   Section        0  d2f.o(.text)
    .text                                    0x0800b724   Section       20  cfcmple.o(.text)
    .text                                    0x0800b738   Section       20  cfrcmple.o(.text)
    .text                                    0x0800b74c   Section        0  uldiv.o(.text)
    .text                                    0x0800b7ae   Section        0  llshl.o(.text)
    .text                                    0x0800b7cc   Section        0  llushr.o(.text)
    .text                                    0x0800b7ec   Section        0  llsshr.o(.text)
    .text                                    0x0800b810   Section        0  tolower.o(.text)
    .text                                    0x0800b81c   Section        0  strtol.o(.text)
    .text                                    0x0800b88c   Section        0  iusefp.o(.text)
    .text                                    0x0800b88c   Section        0  fepilogue.o(.text)
    .text                                    0x0800b8f8   Section        0  fscalb.o(.text)
    .text                                    0x0800b910   Section        0  fsqrt.o(.text)
    .text                                    0x0800b96e   Section        0  frnd.o(.text)
    .text                                    0x0800b9aa   Section        0  depilogue.o(.text)
    .text                                    0x0800ba68   Section        0  dscalb.o(.text)
    .text                                    0x0800ba98   Section       40  cdrcmple.o(.text)
    .text                                    0x0800bac0   Section       36  init.o(.text)
    .text                                    0x0800bae4   Section        0  ctype_o.o(.text)
    .text                                    0x0800baec   Section        0  _strtoul.o(.text)
    .text                                    0x0800bb8a   Section        0  dsqrt.o(.text)
    .text                                    0x0800bc2c   Section        0  _chval.o(.text)
    .text                                    0x0800bc48   Section        0  __dczerorl2.o(.text)
    i.__0sprintf$5                           0x0800bca4   Section        0  printf5.o(i.__0sprintf$5)
    i.__ARM_fpclassify                       0x0800bccc   Section        0  fpclassify.o(i.__ARM_fpclassify)
    i.__ARM_fpclassifyf                      0x0800bcf4   Section        0  fpclassifyf.o(i.__ARM_fpclassifyf)
    i.__aeabi_errno_addr                     0x0800bd1c   Section        0  errno.o(i.__aeabi_errno_addr)
    i.__ieee754_rem_pio2                     0x0800bd24   Section        0  rred.o(i.__ieee754_rem_pio2)
    i.__kernel_cos                           0x0800c0a8   Section        0  cos_i.o(i.__kernel_cos)
    i.__kernel_poly                          0x0800c1a4   Section        0  poly.o(i.__kernel_poly)
    i.__kernel_sin                           0x0800c250   Section        0  sin_i.o(i.__kernel_sin)
    i.__mathlib_dbl_underflow                0x0800c33c   Section        0  dunder.o(i.__mathlib_dbl_underflow)
    i.__mathlib_flt_underflow                0x0800c34c   Section        0  funder.o(i.__mathlib_flt_underflow)
    i.__mathlib_rredf2                       0x0800c358   Section        0  rredf.o(i.__mathlib_rredf2)
    i.__scatterload_copy                     0x0800c4b0   Section       14  handlers.o(i.__scatterload_copy)
    i.__scatterload_null                     0x0800c4be   Section        2  handlers.o(i.__scatterload_null)
    i.__scatterload_zeroinit                 0x0800c4c0   Section       14  handlers.o(i.__scatterload_zeroinit)
    i.__set_errno                            0x0800c4d0   Section        0  errno.o(i.__set_errno)
    i._printf_core                           0x0800c4dc   Section        0  printf5.o(i._printf_core)
    _printf_core                             0x0800c4dd   Thumb Code   676  printf5.o(i._printf_core)
    i._sputc                                 0x0800c7ac   Section        0  printf5.o(i._sputc)
    _sputc                                   0x0800c7ad   Thumb Code    10  printf5.o(i._sputc)
    i.atan2f                                 0x0800c7b8   Section        0  atan2f.o(i.atan2f)
    i.cosf                                   0x0800ca0c   Section        0  cosf.o(i.cosf)
    i.pow                                    0x0800cb8c   Section        0  pow.o(i.pow)
    i.sin                                    0x0800d578   Section        0  sin.o(i.sin)
    i.sinf                                   0x0800d628   Section        0  sinf.o(i.sinf)
    i.sqrt                                   0x0800d7b4   Section        0  sqrt.o(i.sqrt)
    i.sqrtf                                  0x0800d800   Section        0  sqrtf.o(i.sqrtf)
    .constdata                               0x0800d82c   Section     1420  cli.o(.constdata)
    .constdata                               0x0800ddb8   Section        9  config.o(.constdata)
    .constdata                               0x0800ddc4   Section       24  drv_system.o(.constdata)
    .constdata                               0x0800dde0   Section      136  pow.o(.constdata)
    bp                                       0x0800dde0   Data          16  pow.o(.constdata)
    dp_h                                     0x0800ddf0   Data          16  pow.o(.constdata)
    dp_l                                     0x0800de00   Data          16  pow.o(.constdata)
    L                                        0x0800de10   Data          48  pow.o(.constdata)
    P                                        0x0800de40   Data          40  pow.o(.constdata)
    .constdata                               0x0800de68   Section       48  cos_i.o(.constdata)
    C                                        0x0800de68   Data          48  cos_i.o(.constdata)
    .constdata                               0x0800de98   Section        8  qnan.o(.constdata)
    .constdata                               0x0800dea0   Section      200  rred.o(.constdata)
    pio2s                                    0x0800dea0   Data          48  rred.o(.constdata)
    twooverpi                                0x0800ded0   Data         152  rred.o(.constdata)
    .constdata                               0x0800df68   Section       32  rredf.o(.constdata)
    twooverpi                                0x0800df68   Data          32  rredf.o(.constdata)
    .constdata                               0x0800df88   Section       40  sin_i.o(.constdata)
    S                                        0x0800df88   Data          40  sin_i.o(.constdata)
    .constdata                               0x0800dfb0   Section      129  ctype_o.o(.constdata)
    .constdata                               0x0800e034   Section        4  ctype_o.o(.constdata)
    table                                    0x0800e034   Data           4  ctype_o.o(.constdata)
    .conststring                             0x0800e038   Section     1288  cli.o(.conststring)
    .data                                    0x20000000   Section      172  cli.o(.data)
    bufferIndex                              0x20000000   Data           1  cli.o(.data)
    .data                                    0x200000ac   Section        5  config.o(.data)
    enabledSensors                           0x200000ac   Data           4  config.o(.data)
    .data                                    0x200000b4   Section      112  imu.o(.data)
    gyroADCprevious                          0x200000d2   Data           6  imu.o(.data)
    timeInterleave                           0x200000d8   Data           4  imu.o(.data)
    gyroYawSmooth                            0x200000dc   Data           2  imu.o(.data)
    Smoothing                                0x200000de   Data           3  imu.o(.data)
    gyroSmooth                               0x200000e2   Data           6  imu.o(.data)
    previousT                                0x200000e8   Data           4  imu.o(.data)
    deadLine                                 0x200000ec   Data           4  imu.o(.data)
    BaroHistIdx                              0x200000f0   Data           1  imu.o(.data)
    BaroHigh                                 0x200000f4   Data           4  imu.o(.data)
    BaroLow                                  0x200000f8   Data           4  imu.o(.data)
    .data                                    0x20000124   Section       24  mixer.o(.data)
    numberMotor                              0x20000124   Data           1  mixer.o(.data)
    camCycle                                 0x20000136   Data           1  mixer.o(.data)
    camState                                 0x20000137   Data           1  mixer.o(.data)
    camTime                                  0x20000138   Data           4  mixer.o(.data)
    .data                                    0x2000013c   Section      214  mw.o(.data)
    calibratedAccTime                        0x20000188   Data           4  mw.o(.data)
    vbatTimer                                0x2000018c   Data           1  mw.o(.data)
    buzzerFreq                               0x2000018d   Data           1  mw.o(.data)
    ind                                      0x2000018e   Data           1  mw.o(.data)
    LEDTime                                  0x20000190   Data           4  mw.o(.data)
    GPSLEDTime                               0x20000194   Data           4  mw.o(.data)
    rc4ValuesIndex                           0x20000198   Data           1  mw.o(.data)
    rcDelayCommand                           0x20000199   Data           1  mw.o(.data)
    lastGyro                                 0x2000019a   Data           6  mw.o(.data)
    delta1                                   0x200001a0   Data           6  mw.o(.data)
    delta2                                   0x200001a6   Data           6  mw.o(.data)
    errorGyroI                               0x200001ac   Data           6  mw.o(.data)
    errorAngleI                              0x200001b2   Data           4  mw.o(.data)
    rcTime                                   0x200001b8   Data           4  mw.o(.data)
    initialThrottleHold                      0x200001bc   Data           2  mw.o(.data)
    taskOrder                                0x200001be   Data           1  mw.o(.data)
    .data                                    0x20000214   Section       84  sensors.o(.data)
    baroDeadline                             0x20000220   Data           4  sensors.o(.data)
    baroState                                0x20000224   Data           1  sensors.o(.data)
    baroUT                                   0x20000226   Data           2  sensors.o(.data)
    baroUP                                   0x20000228   Data           4  sensors.o(.data)
    magCal                                   0x2000022c   Data          12  sensors.o(.data)
    magInit                                  0x20000238   Data           1  sensors.o(.data)
    accZero_saved                            0x2000023a   Data           6  sensors.o(.data)
    accTrim_saved                            0x20000240   Data           4  sensors.o(.data)
    previousGyroADC                          0x20000244   Data           6  sensors.o(.data)
    rawADC                                   0x2000024a   Data           6  sensors.o(.data)
    t                                        0x20000250   Data           4  sensors.o(.data)
    tCal                                     0x20000254   Data           4  sensors.o(.data)
    magZeroTempMin                           0x20000258   Data           6  sensors.o(.data)
    magZeroTempMax                           0x2000025e   Data           6  sensors.o(.data)
    .data                                    0x20000268   Section        8  serial.o(.data)
    t                                        0x20000269   Data           1  serial.o(.data)
    t                                        0x2000026a   Data           1  serial.o(.data)
    offset                                   0x2000026b   Data           1  serial.o(.data)
    dataSize                                 0x2000026c   Data           1  serial.o(.data)
    checksum                                 0x2000026d   Data           1  serial.o(.data)
    stateMSP                                 0x2000026e   Data           1  serial.o(.data)
    indRX                                    0x2000026f   Data           1  serial.o(.data)
    .data                                    0x20000270   Section      122  gps.o(.data)
    actual_speed                             0x20000270   Data           4  gps.o(.data)
    GPS_filter_index                         0x20000274   Data           1  gps.o(.data)
    nav_loopTimer                            0x20000278   Data           4  gps.o(.data)
    speed_old                                0x2000027c   Data           4  gps.o(.data)
    last                                     0x20000280   Data           8  gps.o(.data)
    init                                     0x20000288   Data           1  gps.o(.data)
    param                                    0x20000289   Data           1  gps.o(.data)
    offset                                   0x2000028a   Data           1  gps.o(.data)
    parity                                   0x2000028b   Data           1  gps.o(.data)
    checksum_param                           0x2000028c   Data           1  gps.o(.data)
    frame                                    0x2000028d   Data           1  gps.o(.data)
    dTnav                                    0x20000290   Data           4  gps.o(.data)
    GPS_scaleLonDown                         0x20000294   Data           4  gps.o(.data)
    rate_error                               0x20000298   Data           4  gps.o(.data)
    error                                    0x2000029c   Data           8  gps.o(.data)
    GPS_WP                                   0x200002a4   Data           8  gps.o(.data)
    target_bearing                           0x200002ac   Data           4  gps.o(.data)
    original_target_bearing                  0x200002b0   Data           4  gps.o(.data)
    crosstrack_error                         0x200002b4   Data           2  gps.o(.data)
    wp_distance                              0x200002b8   Data           4  gps.o(.data)
    waypoint_speed_gov                       0x200002bc   Data           2  gps.o(.data)
    GPS_filter_sum                           0x200002c0   Data           8  gps.o(.data)
    GPS_read                                 0x200002c8   Data           8  gps.o(.data)
    GPS_filtered                             0x200002d0   Data           8  gps.o(.data)
    GPS_degree                               0x200002d8   Data           8  gps.o(.data)
    fraction3                                0x200002e0   Data           4  gps.o(.data)
    nav_bearing                              0x200002e4   Data           4  gps.o(.data)
    nav_takeoff_bearing                      0x200002e8   Data           2  gps.o(.data)
    .data                                    0x200002ec   Section       15  spektrum.o(.data)
    rcFrameComplete                          0x200002ec   Data           1  spektrum.o(.data)
    spekDataIncoming                         0x200002ed   Data           1  spektrum.o(.data)
    spekTimeLast                             0x200002f0   Data           4  spektrum.o(.data)
    spekTimeInterval                         0x200002f4   Data           4  spektrum.o(.data)
    spekFramePosition                        0x200002f8   Data           1  spektrum.o(.data)
    spek_chan_shift                          0x200002f9   Data           1  spektrum.o(.data)
    spek_chan_mask                           0x200002fa   Data           1  spektrum.o(.data)
    .data                                    0x200002fc   Section       22  buzzer.o(.data)
    ontime                                   0x200002fc   Data           2  buzzer.o(.data)
    offtime                                  0x200002fe   Data           2  buzzer.o(.data)
    beepcount                                0x20000300   Data           2  buzzer.o(.data)
    repeat                                   0x20000302   Data           2  buzzer.o(.data)
    repeatcounter                            0x20000304   Data           2  buzzer.o(.data)
    buzzerLastToggleTime                     0x20000308   Data           4  buzzer.o(.data)
    buzzerIsOn                               0x2000030c   Data           1  buzzer.o(.data)
    activateBuzzer                           0x2000030d   Data           1  buzzer.o(.data)
    beeperOnBox                              0x2000030e   Data           1  buzzer.o(.data)
    i                                        0x2000030f   Data           1  buzzer.o(.data)
    warn_noGPSfix                            0x20000310   Data           1  buzzer.o(.data)
    warn_failsafe                            0x20000311   Data           1  buzzer.o(.data)
    .data                                    0x20000314   Section       16  wificontroller.o(.data)
    rcFrameComplete                          0x20000314   Data           1  wificontroller.o(.data)
    wifiDataIncoming                         0x20000315   Data           1  wificontroller.o(.data)
    wifiTimeLast                             0x20000318   Data           4  wificontroller.o(.data)
    wifiTimeInterval                         0x2000031c   Data           4  wificontroller.o(.data)
    wifiFramePosition                        0x20000320   Data           1  wificontroller.o(.data)
    wifiFrameHeader                          0x20000321   Data           1  wificontroller.o(.data)
    wifi_chan_shift                          0x20000322   Data           1  wificontroller.o(.data)
    wifi_chan_mask                           0x20000323   Data           1  wificontroller.o(.data)
    .data                                    0x20000324   Section        2  drv_adc.o(.data)
    adc1Ch4Value                             0x20000324   Data           2  drv_adc.o(.data)
    .data                                    0x20000326   Section        2  drv_adxl345.o(.data)
    useFifo                                  0x20000326   Data           1  drv_adxl345.o(.data)
    .data                                    0x20000328   Section        9  drv_bmp085.o(.data)
    convDone                                 0x20000328   Data           1  drv_bmp085.o(.data)
    convOverrun                              0x2000032a   Data           2  drv_bmp085.o(.data)
    p_bmp085                                 0x2000032c   Data           4  drv_bmp085.o(.data)
    bmp085InitDone                           0x20000330   Data           1  drv_bmp085.o(.data)
    .data                                    0x20000334   Section       28  drv_i2c.o(.data)
    i2cErrorCount                            0x20000334   Data           2  drv_i2c.o(.data)
    error                                    0x20000336   Data           1  drv_i2c.o(.data)
    subaddress_sent                          0x20000337   Data           1  drv_i2c.o(.data)
    final_stop                               0x20000338   Data           1  drv_i2c.o(.data)
    index                                    0x20000339   Data           1  drv_i2c.o(.data)
    I2Cx                                     0x2000033c   Data           4  drv_i2c.o(.data)
    busy                                     0x20000340   Data           1  drv_i2c.o(.data)
    addr                                     0x20000341   Data           1  drv_i2c.o(.data)
    reg                                      0x20000342   Data           1  drv_i2c.o(.data)
    bytes                                    0x20000343   Data           1  drv_i2c.o(.data)
    writing                                  0x20000344   Data           1  drv_i2c.o(.data)
    reading                                  0x20000345   Data           1  drv_i2c.o(.data)
    write_p                                  0x20000348   Data           4  drv_i2c.o(.data)
    read_p                                   0x2000034c   Data           4  drv_i2c.o(.data)
    .data                                    0x20000350   Section        1  drv_mpu3050.o(.data)
    mpuLowPassFilter                         0x20000350   Data           1  drv_mpu3050.o(.data)
    .data                                    0x20000354   Section      113  drv_pwm.o(.data)
    Channels                                 0x20000354   Data          64  drv_pwm.o(.data)
    OutputChannels                           0x20000394   Data          40  drv_pwm.o(.data)
    usePPMFlag                               0x200003bc   Data           1  drv_pwm.o(.data)
    numOutputChannels                        0x200003bd   Data           1  drv_pwm.o(.data)
    rcActive                                 0x200003be   Data           1  drv_pwm.o(.data)
    now                                      0x200003c0   Data           2  drv_pwm.o(.data)
    last                                     0x200003c2   Data           2  drv_pwm.o(.data)
    chan                                     0x200003c4   Data           1  drv_pwm.o(.data)
    .data                                    0x200003c8   Section        8  drv_system.o(.data)
    usTicks                                  0x200003c8   Data           4  drv_system.o(.data)
    sysTickUptime                            0x200003cc   Data           4  drv_system.o(.data)
    .data                                    0x200003d0   Section       16  drv_uart.o(.data)
    .data                                    0x200003e0   Section        1  drv_ledring.o(.data)
    state                                    0x200003e0   Data           1  drv_ledring.o(.data)
    .data                                    0x200003e1   Section        1  drv_mpu6050.o(.data)
    .data                                    0x200003e2   Section        1  drv_mma845x.o(.data)
    device_id                                0x200003e2   Data           1  drv_mma845x.o(.data)
    .data                                    0x200003e4   Section       20  system_stm32f10x.o(.data)
    .data                                    0x200003f8   Section       20  stm32f10x_rcc.o(.data)
    ADCPrescTable                            0x200003f8   Data           4  stm32f10x_rcc.o(.data)
    APBAHBPrescTable                         0x200003fc   Data          16  stm32f10x_rcc.o(.data)
    .data                                    0x2000040c   Section        4  errno.o(.data)
    _errno                                   0x2000040c   Data           4  errno.o(.data)
    .bss                                     0x20000410   Section       32  cli.o(.bss)
    cliBuffer                                0x20000410   Data          32  cli.o(.bss)
    .bss                                     0x20000430   Section      180  config.o(.bss)
    .bss                                     0x200004e4   Section      116  imu.o(.bss)
    EstG                                     0x200004e4   Data          12  imu.o(.bss)
    EstM                                     0x200004f0   Data          12  imu.o(.bss)
    accLPF                                   0x200004fc   Data          12  imu.o(.bss)
    BaroHistTab                              0x20000508   Data          80  imu.o(.bss)
    .bss                                     0x20000558   Section       16  mixer.o(.bss)
    .bss                                     0x20000568   Section      141  mw.o(.bss)
    vbatRawArray                             0x20000568   Data          16  mw.o(.bss)
    rcData4Values                            0x20000578   Data          64  mw.o(.bss)
    rcDataMean                               0x200005b8   Data          16  mw.o(.bss)
    .bss                                     0x200005f8   Section       60  sensors.o(.bss)
    a                                        0x200005f8   Data          12  sensors.o(.bss)
    b                                        0x20000604   Data          12  sensors.o(.bss)
    g                                        0x20000610   Data          12  sensors.o(.bss)
    .bss                                     0x20000634   Section       64  serial.o(.bss)
    inBuf                                    0x20000634   Data          64  serial.o(.bss)
    .bss                                     0x20000674   Section      224  gps.o(.bss)
    string                                   0x20000674   Data          15  gps.o(.bss)
    posholdPID                               0x20000684   Data          16  gps.o(.bss)
    poshold_ratePID                          0x20000694   Data          16  gps.o(.bss)
    navPID                                   0x200006a4   Data          16  gps.o(.bss)
    pi_poshold                               0x200006b4   Data          40  gps.o(.bss)
    pid_poshold_rate                         0x200006dc   Data          40  gps.o(.bss)
    pid_nav                                  0x20000704   Data          40  gps.o(.bss)
    GPS_filter                               0x2000072c   Data          40  gps.o(.bss)
    .bss                                     0x20000754   Section       44  spektrum.o(.bss)
    spekChannelData                          0x20000754   Data          28  spektrum.o(.bss)
    .bss                                     0x20000780   Section      156  wificontroller.o(.bss)
    .bss                                     0x2000081c   Section       40  drv_bmp085.o(.bss)
    bmp085                                   0x2000081c   Data          40  drv_bmp085.o(.bss)
    .bss                                     0x20000844   Section       74  drv_pwm.o(.bss)
    Inputs                                   0x20000844   Data          64  drv_pwm.o(.bss)
    TIM_ICInitStructure                      0x20000884   Data          10  drv_pwm.o(.bss)
    .bss                                     0x2000088e   Section      512  drv_uart.o(.bss)
    STACK                                    0x20000a90   Section     4096  startup_stm32f10x_md.o(STACK)

    Global Symbols

    Symbol Name                              Value     Ov Type        Size  Object(Section)

    BuildAttributes$$THM_ISAv4$P$D$K$B$S$PE$A:L22UL41UL21$X:L11$S22US41US21$IEEE1$IW$USESV6$~STKCKD$USESV7$~SHL$OTIME$ROPI$IEEEX$EBA8$MICROLIB$REQ8$PRES8$EABIv2 0x00000000   Number         0  anon$$obj.o ABSOLUTE
    __ARM_use_no_argv                        0x00000000   Number         0  main.o ABSOLUTE
    _printf_a                                0x00000000   Number         0  stubs.o ABSOLUTE
    _printf_c                                0x00000000   Number         0  stubs.o ABSOLUTE
    _printf_charcount                        0x00000000   Number         0  stubs.o ABSOLUTE
    _printf_d                                0x00000000   Number         0  stubs.o ABSOLUTE
    _printf_e                                0x00000000   Number         0  stubs.o ABSOLUTE
    _printf_f                                0x00000000   Number         0  stubs.o ABSOLUTE
    _printf_flags                            0x00000000   Number         0  stubs.o ABSOLUTE
    _printf_fp_dec                           0x00000000   Number         0  stubs.o ABSOLUTE
    _printf_fp_hex                           0x00000000   Number         0  stubs.o ABSOLUTE
    _printf_g                                0x00000000   Number         0  stubs.o ABSOLUTE
    _printf_i                                0x00000000   Number         0  stubs.o ABSOLUTE
    _printf_int_dec                          0x00000000   Number         0  stubs.o ABSOLUTE
    _printf_l                                0x00000000   Number         0  stubs.o ABSOLUTE
    _printf_lc                               0x00000000   Number         0  stubs.o ABSOLUTE
    _printf_ll                               0x00000000   Number         0  stubs.o ABSOLUTE
    _printf_lld                              0x00000000   Number         0  stubs.o ABSOLUTE
    _printf_lli                              0x00000000   Number         0  stubs.o ABSOLUTE
    _printf_llo                              0x00000000   Number         0  stubs.o ABSOLUTE
    _printf_llu                              0x00000000   Number         0  stubs.o ABSOLUTE
    _printf_llx                              0x00000000   Number         0  stubs.o ABSOLUTE
    _printf_longlong_dec                     0x00000000   Number         0  stubs.o ABSOLUTE
    _printf_longlong_hex                     0x00000000   Number         0  stubs.o ABSOLUTE
    _printf_longlong_oct                     0x00000000   Number         0  stubs.o ABSOLUTE
    _printf_ls                               0x00000000   Number         0  stubs.o ABSOLUTE
    _printf_mbtowc                           0x00000000   Number         0  stubs.o ABSOLUTE
    _printf_n                                0x00000000   Number         0  stubs.o ABSOLUTE
    _printf_o                                0x00000000   Number         0  stubs.o ABSOLUTE
    _printf_p                                0x00000000   Number         0  stubs.o ABSOLUTE
    _printf_percent                          0x00000000   Number         0  stubs.o ABSOLUTE
    _printf_pre_padding                      0x00000000   Number         0  stubs.o ABSOLUTE
    _printf_return_value                     0x00000000   Number         0  stubs.o ABSOLUTE
    _printf_s                                0x00000000   Number         0  stubs.o ABSOLUTE
    _printf_sizespec                         0x00000000   Number         0  stubs.o ABSOLUTE
    _printf_str                              0x00000000   Number         0  stubs.o ABSOLUTE
    _printf_truncate_signed                  0x00000000   Number         0  stubs.o ABSOLUTE
    _printf_truncate_unsigned                0x00000000   Number         0  stubs.o ABSOLUTE
    _printf_u                                0x00000000   Number         0  stubs.o ABSOLUTE
    _printf_wc                               0x00000000   Number         0  stubs.o ABSOLUTE
    _printf_wctomb                           0x00000000   Number         0  stubs.o ABSOLUTE
    _printf_widthprec                        0x00000000   Number         0  stubs.o ABSOLUTE
    _printf_x                                0x00000000   Number         0  stubs.o ABSOLUTE
    _clock_init                               - Undefined Weak Reference
    __Vectors_Size                           0x000000ec   Number         0  startup_stm32f10x_md.o ABSOLUTE
    __Vectors                                0x08000000   Data           4  startup_stm32f10x_md.o(RESET)
    __Vectors_End                            0x080000ec   Data           0  startup_stm32f10x_md.o(RESET)
    __main                                   0x080000ed   Thumb Code     0  entry.o(.ARM.Collect$$$$00000000)
    _main_stk                                0x080000ed   Thumb Code     0  entry2.o(.ARM.Collect$$$$00000001)
    _main_scatterload                        0x080000f1   Thumb Code     0  entry5.o(.ARM.Collect$$$$00000004)
    __main_after_scatterload                 0x080000f5   Thumb Code     0  entry5.o(.ARM.Collect$$$$00000004)
    _main_clock                              0x080000f5   Thumb Code     0  entry7b.o(.ARM.Collect$$$$00000008)
    _main_init                               0x080000f5   Thumb Code     0  entry8.o(.ARM.Collect$$$$00000009)
    itoa                                     0x08000131   Thumb Code    60  cli.o(.text)
    cliProcess                               0x080008f1   Thumb Code   966  cli.o(.text)
    parseRcChannels                          0x08000cc1   Thumb Code    42  config.o(.text)
    readEEPROM                               0x08000ceb   Thumb Code   434  config.o(.text)
    writeParams                              0x08000e9d   Thumb Code    80  config.o(.text)
    featureSet                               0x08000eed   Thumb Code    16  config.o(.text)
    featureClearAll                          0x08000efd   Thumb Code    10  config.o(.text)
    checkFirstTime                           0x08000f07   Thumb Code   636  config.o(.text)
    sensors                                  0x08001183   Thumb Code    18  config.o(.text)
    sensorsSet                               0x08001195   Thumb Code    12  config.o(.text)
    sensorsClear                             0x080011a1   Thumb Code    12  config.o(.text)
    sensorsMask                              0x080011ad   Thumb Code     6  config.o(.text)
    feature                                  0x080011b3   Thumb Code    18  config.o(.text)
    featureClear                             0x080011c5   Thumb Code    12  config.o(.text)
    featureMask                              0x080011d1   Thumb Code     6  config.o(.text)
    imuInit                                  0x080011e1   Thumb Code    44  imu.o(.text)
    rotateV                                  0x08001239   Thumb Code   128  imu.o(.text)
    computeIMU                               0x0800164b   Thumb Code   376  imu.o(.text)
    getEstimatedAltitude                     0x080017c3   Thumb Code   496  imu.o(.text)
    throttleCalibration                      0x08001a11   Thumb Code    92  main.o(.text)
    main                                     0x08001a6d   Thumb Code   336  main.o(.text)
    mixerInit                                0x08001be5   Thumb Code   166  mixer.o(.text)
    writeServos                              0x08001c8b   Thumb Code    88  mixer.o(.text)
    writeMotors                              0x08001ce3   Thumb Code    46  mixer.o(.text)
    writeAllMotors                           0x08001d11   Thumb Code    32  mixer.o(.text)
    mixTable                                 0x08001d31   Thumb Code  4556  mixer.o(.text)
    blinkLED                                 0x08002f29   Thumb Code    84  mw.o(.text)
    annexCode                                0x08002f7d   Thumb Code  1322  mw.o(.text)
    pwmReadRawRC                             0x080034a7   Thumb Code    42  mw.o(.text)
    computeRC                                0x080034d1   Thumb Code   198  mw.o(.text)
    loop                                     0x08003597   Thumb Code  3412  mw.o(.text)
    sensorsAutodetect                        0x08004331   Thumb Code   338  sensors.o(.text)
    batteryAdcToVoltage                      0x08004483   Thumb Code    60  sensors.o(.text)
    batteryInit                              0x080044bf   Thumb Code    84  sensors.o(.text)
    ACC_getADC                               0x08004775   Thumb Code    24  sensors.o(.text)
    Baro_update                              0x0800478d   Thumb Code   244  sensors.o(.text)
    Gyro_getADC                              0x0800497b   Thumb Code    24  sensors.o(.text)
    Mag_init                                 0x080049b9   Thumb Code   402  sensors.o(.text)
    Mag_getADC                               0x08004b4b   Thumb Code   524  sensors.o(.text)
    serialize32                              0x08004d8d   Thumb Code   116  serial.o(.text)
    serialize16                              0x08004e01   Thumb Code    60  serial.o(.text)
    serialize8                               0x08004e3d   Thumb Code    22  serial.o(.text)
    read32                                   0x08004e53   Thumb Code    72  serial.o(.text)
    read16                                   0x08004e9b   Thumb Code    38  serial.o(.text)
    read8                                    0x08004ec1   Thumb Code    18  serial.o(.text)
    headSerialReply                          0x08004ed3   Thumb Code    44  serial.o(.text)
    tailSerialReply                          0x08004eff   Thumb Code    12  serial.o(.text)
    serialInit                               0x08004f0b   Thumb Code    12  serial.o(.text)
    serialCom                                0x08004f17   Thumb Code  1668  serial.o(.text)
    gpsInit                                  0x08006513   Thumb Code    24  gps.o(.text)
    GPS_reset_home_position                  0x08006535   Thumb Code    22  gps.o(.text)
    GPS_reset_nav                            0x0800654b   Thumb Code    72  gps.o(.text)
    GPS_set_next_wp                          0x08006593   Thumb Code    86  gps.o(.text)
    spektrumInit                             0x080066bb   Thumb Code    48  spektrum.o(.text)
    spektrumFrameComplete                    0x080066eb   Thumb Code     6  spektrum.o(.text)
    spektrumReadRawRC                        0x080066f1   Thumb Code   144  spektrum.o(.text)
    buzzer                                   0x080067b1   Thumb Code   634  buzzer.o(.text)
    wifiCheckData                            0x08006a7d   Thumb Code    46  wificontroller.o(.text)
    wifiInit                                 0x08006b67   Thumb Code    14  wificontroller.o(.text)
    printHex                                 0x08006b75   Thumb Code    22  wificontroller.o(.text)
    wifiFrameComplete                        0x08006b8b   Thumb Code     6  wificontroller.o(.text)
    assignChannelData                        0x08006b91   Thumb Code    46  wificontroller.o(.text)
    assignWifiFrame                          0x08006bbf   Thumb Code    32  wificontroller.o(.text)
    wifiReadRawRC                            0x08006bdf   Thumb Code    36  wificontroller.o(.text)
    adcInit                                  0x08006c35   Thumb Code   202  drv_adc.o(.text)
    adcGetBattery                            0x08006cff   Thumb Code     6  drv_adc.o(.text)
    adxl345Detect                            0x08006e39   Thumb Code    62  drv_adxl345.o(.text)
    EXTI15_10_IRQHandler                     0x08006e91   Thumb Code    28  drv_bmp085.o(.text)
    bmp085Init                               0x08006f9b   Thumb Code   270  drv_bmp085.o(.text)
    bmp085_get_ut                            0x080070a9   Thumb Code    54  drv_bmp085.o(.text)
    bmp085_get_temperature                   0x080070df   Thumb Code    78  drv_bmp085.o(.text)
    bmp085_start_ut                          0x0800712d   Thumb Code    24  drv_bmp085.o(.text)
    bmp085_read_temperature                  0x08007145   Thumb Code    40  drv_bmp085.o(.text)
    bmp085_get_up                            0x0800716d   Thumb Code    80  drv_bmp085.o(.text)
    bmp085_get_pressure                      0x080071bd   Thumb Code   310  drv_bmp085.o(.text)
    bmp085_start_up                          0x080072f3   Thumb Code    38  drv_bmp085.o(.text)
    bmp085_read_pressure                     0x08007319   Thumb Code    40  drv_bmp085.o(.text)
    hmc5883lDetect                           0x08007351   Thumb Code    40  drv_hmc5883l.o(.text)
    hmc5883lInit                             0x08007379   Thumb Code    26  drv_hmc5883l.o(.text)
    hmc5883lCal                              0x08007393   Thumb Code    42  drv_hmc5883l.o(.text)
    hmc5883lFinishCal                        0x080073bd   Thumb Code    34  drv_hmc5883l.o(.text)
    hmc5883lRead                             0x080073df   Thumb Code    66  drv_hmc5883l.o(.text)
    i2cInit                                  0x080074e3   Thumb Code   174  drv_i2c.o(.text)
    I2C1_ER_IRQHandler                       0x08007633   Thumb Code     8  drv_i2c.o(.text)
    I2C1_EV_IRQHandler                       0x08007a11   Thumb Code     8  drv_i2c.o(.text)
    I2C2_ER_IRQHandler                       0x08007a19   Thumb Code     8  drv_i2c.o(.text)
    I2C2_EV_IRQHandler                       0x08007a21   Thumb Code     8  drv_i2c.o(.text)
    i2cWriteBuffer                           0x08007a29   Thumb Code   206  drv_i2c.o(.text)
    i2cWrite                                 0x08007af7   Thumb Code    20  drv_i2c.o(.text)
    i2cRead                                  0x08007b0b   Thumb Code   172  drv_i2c.o(.text)
    i2cGetErrorCounter                       0x08007bb7   Thumb Code     6  drv_i2c.o(.text)
    mpu3050Detect                            0x08007cad   Thumb Code    44  drv_mpu3050.o(.text)
    mpu3050Config                            0x08007cd9   Thumb Code   102  drv_mpu3050.o(.text)
    TIM2_IRQHandler                          0x08007f09   Thumb Code    28  drv_pwm.o(.text)
    TIM3_IRQHandler                          0x08007f25   Thumb Code    10  drv_pwm.o(.text)
    pwmInit                                  0x080080b1   Thumb Code   672  drv_pwm.o(.text)
    pwmWrite                                 0x08008351   Thumb Code    18  drv_pwm.o(.text)
    pwmRead                                  0x08008363   Thumb Code    12  drv_pwm.o(.text)
    pwmGetNumOutputChannels                  0x0800836f   Thumb Code     6  drv_pwm.o(.text)
    SysTick_Handler                          0x080083b3   Thumb Code    12  drv_system.o(.text)
    micros                                   0x080083bf   Thumb Code    44  drv_system.o(.text)
    millis                                   0x080083eb   Thumb Code     6  drv_system.o(.text)
    delayMicroseconds                        0x080083f1   Thumb Code    24  drv_system.o(.text)
    delay                                    0x08008409   Thumb Code    24  drv_system.o(.text)
    systemInit                               0x08008421   Thumb Code   268  drv_system.o(.text)
    failureMode                              0x0800852d   Thumb Code    86  drv_system.o(.text)
    systemReset                              0x08008583   Thumb Code    18  drv_system.o(.text)
    DMA1_Channel4_IRQHandler                 0x08008629   Thumb Code    38  drv_uart.o(.text)
    uartInit                                 0x0800864f   Thumb Code   296  drv_uart.o(.text)
    uartAvailable                            0x08008777   Thumb Code    26  drv_uart.o(.text)
    uartTransmitEmpty                        0x08008791   Thumb Code    20  drv_uart.o(.text)
    uartRead                                 0x080087a5   Thumb Code    32  drv_uart.o(.text)
    uartReadPoll                             0x080087c5   Thumb Code    18  drv_uart.o(.text)
    uartWrite                                0x080087d7   Thumb Code    40  drv_uart.o(.text)
    uartPrint                                0x080087ff   Thumb Code    22  drv_uart.o(.text)
    uart2Init                                0x08008815   Thumb Code   130  drv_uart.o(.text)
    USART2_IRQHandler                        0x08008897   Thumb Code    38  drv_uart.o(.text)
    ledringDetect                            0x080088e5   Thumb Code    28  drv_ledring.o(.text)
    ledringState                             0x08008901   Thumb Code   274  drv_ledring.o(.text)
    ledringBlink                             0x08008a13   Thumb Code    32  drv_ledring.o(.text)
    mpu6050Detect                            0x08008bb1   Thumb Code    84  drv_mpu6050.o(.text)
    mpu6050DmpLoop                           0x08008c05   Thumb Code     2  drv_mpu6050.o(.text)
    mpu6050DmpResetFifo                      0x08008c07   Thumb Code     2  drv_mpu6050.o(.text)
    mma8452Detect                            0x08008d0f   Thumb Code    70  drv_mma845x.o(.text)
    SystemInit                               0x08008d69   Thumb Code    64  system_stm32f10x.o(.text)
    SystemCoreClockUpdate                    0x08008da9   Thumb Code    86  system_stm32f10x.o(.text)
    NVIC_PriorityGroupConfig                 0x08008ea9   Thumb Code    10  misc.o(.text)
    NVIC_Init                                0x08008eb3   Thumb Code    90  misc.o(.text)
    NVIC_SetVectorTable                      0x08008f0d   Thumb Code    14  misc.o(.text)
    NVIC_SystemLPConfig                      0x08008f1b   Thumb Code    20  misc.o(.text)
    SysTick_CLKSourceConfig                  0x08008f2f   Thumb Code    24  misc.o(.text)
    ADC_DeInit                               0x08008f59   Thumb Code    56  stm32f10x_adc.o(.text)
    ADC_Init                                 0x08008f91   Thumb Code    62  stm32f10x_adc.o(.text)
    ADC_StructInit                           0x08008fcf   Thumb Code    18  stm32f10x_adc.o(.text)
    ADC_Cmd                                  0x08008fe1   Thumb Code    20  stm32f10x_adc.o(.text)
    ADC_DMACmd                               0x08008ff5   Thumb Code    20  stm32f10x_adc.o(.text)
    ADC_ITConfig                             0x08009009   Thumb Code    18  stm32f10x_adc.o(.text)
    ADC_ResetCalibration                     0x0800901b   Thumb Code    10  stm32f10x_adc.o(.text)
    ADC_GetResetCalibrationStatus            0x08009025   Thumb Code    14  stm32f10x_adc.o(.text)
    ADC_StartCalibration                     0x08009033   Thumb Code    10  stm32f10x_adc.o(.text)
    ADC_GetCalibrationStatus                 0x0800903d   Thumb Code    14  stm32f10x_adc.o(.text)
    ADC_SoftwareStartConvCmd                 0x0800904b   Thumb Code    20  stm32f10x_adc.o(.text)
    ADC_GetSoftwareStartConvStatus           0x0800905f   Thumb Code    14  stm32f10x_adc.o(.text)
    ADC_DiscModeChannelCountConfig           0x0800906d   Thumb Code    16  stm32f10x_adc.o(.text)
    ADC_DiscModeCmd                          0x0800907d   Thumb Code    20  stm32f10x_adc.o(.text)
    ADC_RegularChannelConfig                 0x08009091   Thumb Code   116  stm32f10x_adc.o(.text)
    ADC_ExternalTrigConvCmd                  0x08009105   Thumb Code    20  stm32f10x_adc.o(.text)
    ADC_GetConversionValue                   0x08009119   Thumb Code     6  stm32f10x_adc.o(.text)
    ADC_GetDualModeConversionValue           0x0800911f   Thumb Code     8  stm32f10x_adc.o(.text)
    ADC_AutoInjectedConvCmd                  0x08009127   Thumb Code    20  stm32f10x_adc.o(.text)
    ADC_InjectedDiscModeCmd                  0x0800913b   Thumb Code    20  stm32f10x_adc.o(.text)
    ADC_ExternalTrigInjectedConvConfig       0x0800914f   Thumb Code    12  stm32f10x_adc.o(.text)
    ADC_ExternalTrigInjectedConvCmd          0x0800915b   Thumb Code    20  stm32f10x_adc.o(.text)
    ADC_SoftwareStartInjectedConvCmd         0x0800916f   Thumb Code    20  stm32f10x_adc.o(.text)
    ADC_GetSoftwareStartInjectedConvCmdStatus 0x08009183   Thumb Code    14  stm32f10x_adc.o(.text)
    ADC_InjectedChannelConfig                0x08009191   Thumb Code    74  stm32f10x_adc.o(.text)
    ADC_InjectedSequencerLengthConfig        0x080091db   Thumb Code    16  stm32f10x_adc.o(.text)
    ADC_SetInjectedOffset                    0x080091eb   Thumb Code     4  stm32f10x_adc.o(.text)
    ADC_GetInjectedConversionValue           0x080091ef   Thumb Code     8  stm32f10x_adc.o(.text)
    ADC_AnalogWatchdogCmd                    0x080091f7   Thumb Code    12  stm32f10x_adc.o(.text)
    ADC_AnalogWatchdogThresholdsConfig       0x08009203   Thumb Code     6  stm32f10x_adc.o(.text)
    ADC_AnalogWatchdogSingleChannelConfig    0x08009209   Thumb Code    12  stm32f10x_adc.o(.text)
    ADC_TempSensorVrefintCmd                 0x08009215   Thumb Code    24  stm32f10x_adc.o(.text)
    ADC_GetFlagStatus                        0x0800922d   Thumb Code    14  stm32f10x_adc.o(.text)
    ADC_ClearFlag                            0x0800923b   Thumb Code     6  stm32f10x_adc.o(.text)
    ADC_GetITStatus                          0x08009241   Thumb Code    26  stm32f10x_adc.o(.text)
    ADC_ClearITPendingBit                    0x0800925b   Thumb Code     8  stm32f10x_adc.o(.text)
    DMA_DeInit                               0x0800927d   Thumb Code   218  stm32f10x_dma.o(.text)
    DMA_Init                                 0x08009357   Thumb Code    58  stm32f10x_dma.o(.text)
    DMA_StructInit                           0x08009391   Thumb Code    26  stm32f10x_dma.o(.text)
    DMA_Cmd                                  0x080093ab   Thumb Code    22  stm32f10x_dma.o(.text)
    DMA_ITConfig                             0x080093c1   Thumb Code    16  stm32f10x_dma.o(.text)
    DMA_SetCurrDataCounter                   0x080093d1   Thumb Code     4  stm32f10x_dma.o(.text)
    DMA_GetCurrDataCounter                   0x080093d5   Thumb Code     6  stm32f10x_dma.o(.text)
    DMA_GetFlagStatus                        0x080093db   Thumb Code    28  stm32f10x_dma.o(.text)
    DMA_ClearFlag                            0x080093f7   Thumb Code    20  stm32f10x_dma.o(.text)
    DMA_GetITStatus                          0x0800940b   Thumb Code    28  stm32f10x_dma.o(.text)
    DMA_ClearITPendingBit                    0x08009427   Thumb Code    20  stm32f10x_dma.o(.text)
    EXTI_DeInit                              0x08009445   Thumb Code    28  stm32f10x_exti.o(.text)
    EXTI_Init                                0x08009461   Thumb Code   108  stm32f10x_exti.o(.text)
    EXTI_StructInit                          0x080094cd   Thumb Code    14  stm32f10x_exti.o(.text)
    EXTI_GenerateSWInterrupt                 0x080094db   Thumb Code    12  stm32f10x_exti.o(.text)
    EXTI_GetFlagStatus                       0x080094e7   Thumb Code    18  stm32f10x_exti.o(.text)
    EXTI_ClearFlag                           0x080094f9   Thumb Code     8  stm32f10x_exti.o(.text)
    EXTI_GetITStatus                         0x08009501   Thumb Code    28  stm32f10x_exti.o(.text)
    EXTI_ClearITPendingBit                   0x0800951d   Thumb Code     8  stm32f10x_exti.o(.text)
    I2C_DeInit                               0x0800952d   Thumb Code    38  stm32f10x_i2c.o(.text)
    I2C_Init                                 0x08009553   Thumb Code   176  stm32f10x_i2c.o(.text)
    I2C_StructInit                           0x08009603   Thumb Code    28  stm32f10x_i2c.o(.text)
    I2C_Cmd                                  0x0800961f   Thumb Code    20  stm32f10x_i2c.o(.text)
    I2C_DMACmd                               0x08009633   Thumb Code    20  stm32f10x_i2c.o(.text)
    I2C_DMALastTransferCmd                   0x08009647   Thumb Code    20  stm32f10x_i2c.o(.text)
    I2C_GenerateSTART                        0x0800965b   Thumb Code    20  stm32f10x_i2c.o(.text)
    I2C_GenerateSTOP                         0x0800966f   Thumb Code    20  stm32f10x_i2c.o(.text)
    I2C_AcknowledgeConfig                    0x08009683   Thumb Code    20  stm32f10x_i2c.o(.text)
    I2C_OwnAddress2Config                    0x08009697   Thumb Code    16  stm32f10x_i2c.o(.text)
    I2C_DualAddressCmd                       0x080096a7   Thumb Code    20  stm32f10x_i2c.o(.text)
    I2C_GeneralCallCmd                       0x080096bb   Thumb Code    20  stm32f10x_i2c.o(.text)
    I2C_ITConfig                             0x080096cf   Thumb Code    16  stm32f10x_i2c.o(.text)
    I2C_SendData                             0x080096df   Thumb Code     4  stm32f10x_i2c.o(.text)
    I2C_ReceiveData                          0x080096e3   Thumb Code     6  stm32f10x_i2c.o(.text)
    I2C_Send7bitAddress                      0x080096e9   Thumb Code    16  stm32f10x_i2c.o(.text)
    I2C_ReadRegister                         0x080096f9   Thumb Code     4  stm32f10x_i2c.o(.text)
    I2C_SoftwareResetCmd                     0x080096fd   Thumb Code    20  stm32f10x_i2c.o(.text)
    I2C_NACKPositionConfig                   0x08009711   Thumb Code    22  stm32f10x_i2c.o(.text)
    I2C_SMBusAlertConfig                     0x08009727   Thumb Code    22  stm32f10x_i2c.o(.text)
    I2C_TransmitPEC                          0x0800973d   Thumb Code    20  stm32f10x_i2c.o(.text)
    I2C_PECPositionConfig                    0x08009751   Thumb Code    22  stm32f10x_i2c.o(.text)
    I2C_CalculatePEC                         0x08009767   Thumb Code    20  stm32f10x_i2c.o(.text)
    I2C_GetPEC                               0x0800977b   Thumb Code     6  stm32f10x_i2c.o(.text)
    I2C_ARPCmd                               0x08009781   Thumb Code    20  stm32f10x_i2c.o(.text)
    I2C_StretchClockCmd                      0x08009795   Thumb Code    20  stm32f10x_i2c.o(.text)
    I2C_FastModeDutyCycleConfig              0x080097a9   Thumb Code    22  stm32f10x_i2c.o(.text)
    I2C_CheckEvent                           0x080097bf   Thumb Code    24  stm32f10x_i2c.o(.text)
    I2C_GetLastEvent                         0x080097d7   Thumb Code    14  stm32f10x_i2c.o(.text)
    I2C_GetFlagStatus                        0x080097e5   Thumb Code    30  stm32f10x_i2c.o(.text)
    I2C_ClearFlag                            0x08009803   Thumb Code     6  stm32f10x_i2c.o(.text)
    I2C_GetITStatus                          0x08009809   Thumb Code    32  stm32f10x_i2c.o(.text)
    I2C_ClearITPendingBit                    0x08009829   Thumb Code     6  stm32f10x_i2c.o(.text)
    RCC_DeInit                               0x0800983d   Thumb Code    50  stm32f10x_rcc.o(.text)
    RCC_HSEConfig                            0x0800986f   Thumb Code    48  stm32f10x_rcc.o(.text)
    RCC_GetFlagStatus                        0x0800989f   Thumb Code    42  stm32f10x_rcc.o(.text)
    RCC_WaitForHSEStartUp                    0x080098c9   Thumb Code    38  stm32f10x_rcc.o(.text)
    RCC_AdjustHSICalibrationValue            0x080098ef   Thumb Code    16  stm32f10x_rcc.o(.text)
    RCC_HSICmd                               0x080098ff   Thumb Code     6  stm32f10x_rcc.o(.text)
    RCC_PLLConfig                            0x08009905   Thumb Code    16  stm32f10x_rcc.o(.text)
    RCC_PLLCmd                               0x08009915   Thumb Code     6  stm32f10x_rcc.o(.text)
    RCC_SYSCLKConfig                         0x0800991b   Thumb Code    14  stm32f10x_rcc.o(.text)
    RCC_GetSYSCLKSource                      0x08009929   Thumb Code    10  stm32f10x_rcc.o(.text)
    RCC_HCLKConfig                           0x08009933   Thumb Code    14  stm32f10x_rcc.o(.text)
    RCC_PCLK1Config                          0x08009941   Thumb Code    14  stm32f10x_rcc.o(.text)
    RCC_PCLK2Config                          0x0800994f   Thumb Code    16  stm32f10x_rcc.o(.text)
    RCC_ITConfig                             0x0800995f   Thumb Code    18  stm32f10x_rcc.o(.text)
    RCC_USBCLKConfig                         0x08009971   Thumb Code     6  stm32f10x_rcc.o(.text)
    RCC_ADCCLKConfig                         0x08009977   Thumb Code    14  stm32f10x_rcc.o(.text)
    RCC_LSEConfig                            0x08009985   Thumb Code    26  stm32f10x_rcc.o(.text)
    RCC_LSICmd                               0x0800999f   Thumb Code     6  stm32f10x_rcc.o(.text)
    RCC_RTCCLKConfig                         0x080099a5   Thumb Code    10  stm32f10x_rcc.o(.text)
    RCC_RTCCLKCmd                            0x080099af   Thumb Code     8  stm32f10x_rcc.o(.text)
    RCC_GetClocksFreq                        0x080099b7   Thumb Code   138  stm32f10x_rcc.o(.text)
    RCC_AHBPeriphClockCmd                    0x08009a41   Thumb Code    18  stm32f10x_rcc.o(.text)
    RCC_APB2PeriphClockCmd                   0x08009a53   Thumb Code    18  stm32f10x_rcc.o(.text)
    RCC_APB1PeriphClockCmd                   0x08009a65   Thumb Code    18  stm32f10x_rcc.o(.text)
    RCC_APB2PeriphResetCmd                   0x08009a77   Thumb Code    18  stm32f10x_rcc.o(.text)
    RCC_APB1PeriphResetCmd                   0x08009a89   Thumb Code    18  stm32f10x_rcc.o(.text)
    RCC_BackupResetCmd                       0x08009a9b   Thumb Code     8  stm32f10x_rcc.o(.text)
    RCC_ClockSecuritySystemCmd               0x08009aa3   Thumb Code     6  stm32f10x_rcc.o(.text)
    RCC_MCOConfig                            0x08009aa9   Thumb Code     6  stm32f10x_rcc.o(.text)
    RCC_ClearFlag                            0x08009aaf   Thumb Code    12  stm32f10x_rcc.o(.text)
    RCC_GetITStatus                          0x08009abb   Thumb Code    16  stm32f10x_rcc.o(.text)
    RCC_ClearITPendingBit                    0x08009acb   Thumb Code     6  stm32f10x_rcc.o(.text)
    TIM_DeInit                               0x08009af9   Thumb Code   304  stm32f10x_tim.o(.text)
    TIM_TimeBaseInit                         0x08009c29   Thumb Code   114  stm32f10x_tim.o(.text)
    TIM_OC1Init                              0x08009c9b   Thumb Code   106  stm32f10x_tim.o(.text)
    TIM_OC2Init                              0x08009d05   Thumb Code   116  stm32f10x_tim.o(.text)
    TIM_OC3Init                              0x08009d79   Thumb Code   112  stm32f10x_tim.o(.text)
    TIM_OC4Init                              0x08009de9   Thumb Code    86  stm32f10x_tim.o(.text)
    TIM_SetIC4Prescaler                      0x08009e3f   Thumb Code    18  stm32f10x_tim.o(.text)
    TIM_SetIC3Prescaler                      0x08009e51   Thumb Code    16  stm32f10x_tim.o(.text)
    TIM_SetIC2Prescaler                      0x08009e61   Thumb Code    18  stm32f10x_tim.o(.text)
    TIM_SetIC1Prescaler                      0x08009f15   Thumb Code    16  stm32f10x_tim.o(.text)
    TIM_ICInit                               0x08009f79   Thumb Code   262  stm32f10x_tim.o(.text)
    TIM_PWMIConfig                           0x0800a07f   Thumb Code   104  stm32f10x_tim.o(.text)
    TIM_BDTRConfig                           0x0800a0e7   Thumb Code    34  stm32f10x_tim.o(.text)
    TIM_TimeBaseStructInit                   0x0800a109   Thumb Code    18  stm32f10x_tim.o(.text)
    TIM_OCStructInit                         0x0800a11b   Thumb Code    20  stm32f10x_tim.o(.text)
    TIM_ICStructInit                         0x0800a12f   Thumb Code    16  stm32f10x_tim.o(.text)
    TIM_BDTRStructInit                       0x0800a13f   Thumb Code    18  stm32f10x_tim.o(.text)
    TIM_Cmd                                  0x0800a151   Thumb Code    20  stm32f10x_tim.o(.text)
    TIM_CtrlPWMOutputs                       0x0800a165   Thumb Code    22  stm32f10x_tim.o(.text)
    TIM_ITConfig                             0x0800a17b   Thumb Code    16  stm32f10x_tim.o(.text)
    TIM_GenerateEvent                        0x0800a18b   Thumb Code     4  stm32f10x_tim.o(.text)
    TIM_DMAConfig                            0x0800a18f   Thumb Code     8  stm32f10x_tim.o(.text)
    TIM_DMACmd                               0x0800a197   Thumb Code    16  stm32f10x_tim.o(.text)
    TIM_InternalClockConfig                  0x0800a1a7   Thumb Code    10  stm32f10x_tim.o(.text)
    TIM_SelectInputTrigger                   0x0800a1b1   Thumb Code    12  stm32f10x_tim.o(.text)
    TIM_ITRxExternalClockConfig              0x0800a1bd   Thumb Code    18  stm32f10x_tim.o(.text)
    TIM_TIxExternalClockConfig               0x0800a1cf   Thumb Code    44  stm32f10x_tim.o(.text)
    TIM_ETRConfig                            0x0800a1fb   Thumb Code    18  stm32f10x_tim.o(.text)
    TIM_ETRClockMode1Config                  0x0800a20d   Thumb Code    18  stm32f10x_tim.o(.text)
    TIM_ETRClockMode2Config                  0x0800a21f   Thumb Code    18  stm32f10x_tim.o(.text)
    TIM_PrescalerConfig                      0x0800a231   Thumb Code     6  stm32f10x_tim.o(.text)
    TIM_CounterModeConfig                    0x0800a237   Thumb Code    12  stm32f10x_tim.o(.text)
    TIM_EncoderInterfaceConfig               0x0800a243   Thumb Code    44  stm32f10x_tim.o(.text)
    TIM_ForcedOC1Config                      0x0800a26f   Thumb Code    12  stm32f10x_tim.o(.text)
    TIM_ForcedOC2Config                      0x0800a27b   Thumb Code    14  stm32f10x_tim.o(.text)
    TIM_ForcedOC3Config                      0x0800a289   Thumb Code    12  stm32f10x_tim.o(.text)
    TIM_ForcedOC4Config                      0x0800a295   Thumb Code    14  stm32f10x_tim.o(.text)
    TIM_ARRPreloadConfig                     0x0800a2a3   Thumb Code    20  stm32f10x_tim.o(.text)
    TIM_SelectCOM                            0x0800a2b7   Thumb Code    20  stm32f10x_tim.o(.text)
    TIM_SelectCCDMA                          0x0800a2cb   Thumb Code    20  stm32f10x_tim.o(.text)
    TIM_CCPreloadControl                     0x0800a2df   Thumb Code    20  stm32f10x_tim.o(.text)
    TIM_OC1PreloadConfig                     0x0800a2f3   Thumb Code    12  stm32f10x_tim.o(.text)
    TIM_OC2PreloadConfig                     0x0800a2ff   Thumb Code    14  stm32f10x_tim.o(.text)
    TIM_OC3PreloadConfig                     0x0800a30d   Thumb Code    32  stm32f10x_tim.o(.text)
    TIM_OC4PreloadConfig                     0x0800a32d   Thumb Code    14  stm32f10x_tim.o(.text)
    TIM_OC1FastConfig                        0x0800a33b   Thumb Code    12  stm32f10x_tim.o(.text)
    TIM_OC2FastConfig                        0x0800a347   Thumb Code    14  stm32f10x_tim.o(.text)
    TIM_OC3FastConfig                        0x0800a355   Thumb Code    12  stm32f10x_tim.o(.text)
    TIM_OC4FastConfig                        0x0800a361   Thumb Code    14  stm32f10x_tim.o(.text)
    TIM_ClearOC1Ref                          0x0800a36f   Thumb Code    12  stm32f10x_tim.o(.text)
    TIM_ClearOC2Ref                          0x0800a37b   Thumb Code    14  stm32f10x_tim.o(.text)
    TIM_ClearOC3Ref                          0x0800a389   Thumb Code    12  stm32f10x_tim.o(.text)
    TIM_ClearOC4Ref                          0x0800a395   Thumb Code    14  stm32f10x_tim.o(.text)
    TIM_OC1PolarityConfig                    0x0800a3a3   Thumb Code    12  stm32f10x_tim.o(.text)
    TIM_OC1NPolarityConfig                   0x0800a3af   Thumb Code    12  stm32f10x_tim.o(.text)
    TIM_OC2PolarityConfig                    0x0800a3bb   Thumb Code    14  stm32f10x_tim.o(.text)
    TIM_OC2NPolarityConfig                   0x0800a3c9   Thumb Code    14  stm32f10x_tim.o(.text)
    TIM_OC3PolarityConfig                    0x0800a3d7   Thumb Code    14  stm32f10x_tim.o(.text)
    TIM_OC3NPolarityConfig                   0x0800a3e5   Thumb Code    14  stm32f10x_tim.o(.text)
    TIM_OC4PolarityConfig                    0x0800a3f3   Thumb Code    14  stm32f10x_tim.o(.text)
    TIM_CCxCmd                               0x0800a401   Thumb Code    22  stm32f10x_tim.o(.text)
    TIM_CCxNCmd                              0x0800a417   Thumb Code    22  stm32f10x_tim.o(.text)
    TIM_SelectOCxM                           0x0800a42d   Thumb Code    66  stm32f10x_tim.o(.text)
    TIM_UpdateDisableConfig                  0x0800a46f   Thumb Code    20  stm32f10x_tim.o(.text)
    TIM_UpdateRequestConfig                  0x0800a483   Thumb Code    20  stm32f10x_tim.o(.text)
    TIM_SelectHallSensor                     0x0800a497   Thumb Code    20  stm32f10x_tim.o(.text)
    TIM_SelectOnePulseMode                   0x0800a4ab   Thumb Code    16  stm32f10x_tim.o(.text)
    TIM_SelectOutputTrigger                  0x0800a4bb   Thumb Code    16  stm32f10x_tim.o(.text)
    TIM_SelectSlaveMode                      0x0800a4cb   Thumb Code    16  stm32f10x_tim.o(.text)
    TIM_SelectMasterSlaveMode                0x0800a4db   Thumb Code    16  stm32f10x_tim.o(.text)
    TIM_SetCounter                           0x0800a4eb   Thumb Code     4  stm32f10x_tim.o(.text)
    TIM_SetAutoreload                        0x0800a4ef   Thumb Code     4  stm32f10x_tim.o(.text)
    TIM_SetCompare1                          0x0800a4f3   Thumb Code     4  stm32f10x_tim.o(.text)
    TIM_SetCompare2                          0x0800a4f7   Thumb Code     4  stm32f10x_tim.o(.text)
    TIM_SetCompare3                          0x0800a4fb   Thumb Code     4  stm32f10x_tim.o(.text)
    TIM_SetCompare4                          0x0800a4ff   Thumb Code     6  stm32f10x_tim.o(.text)
    TIM_SetClockDivision                     0x0800a505   Thumb Code    16  stm32f10x_tim.o(.text)
    TIM_GetCapture1                          0x0800a515   Thumb Code     4  stm32f10x_tim.o(.text)
    TIM_GetCapture2                          0x0800a519   Thumb Code     4  stm32f10x_tim.o(.text)
    TIM_GetCapture3                          0x0800a51d   Thumb Code     4  stm32f10x_tim.o(.text)
    TIM_GetCapture4                          0x0800a521   Thumb Code     6  stm32f10x_tim.o(.text)
    TIM_GetCounter                           0x0800a527   Thumb Code     4  stm32f10x_tim.o(.text)
    TIM_GetPrescaler                         0x0800a52b   Thumb Code     4  stm32f10x_tim.o(.text)
    TIM_GetFlagStatus                        0x0800a52f   Thumb Code    14  stm32f10x_tim.o(.text)
    TIM_ClearFlag                            0x0800a53d   Thumb Code     6  stm32f10x_tim.o(.text)
    TIM_GetITStatus                          0x0800a543   Thumb Code    22  stm32f10x_tim.o(.text)
    TIM_ClearITPendingBit                    0x0800a559   Thumb Code     6  stm32f10x_tim.o(.text)
    USART_DeInit                             0x0800a561   Thumb Code    96  stm32f10x_usart.o(.text)
    USART_Init                               0x0800a5c1   Thumb Code   176  stm32f10x_usart.o(.text)
    USART_StructInit                         0x0800a671   Thumb Code    22  stm32f10x_usart.o(.text)
    USART_ClockInit                          0x0800a687   Thumb Code    30  stm32f10x_usart.o(.text)
    USART_ClockStructInit                    0x0800a6a5   Thumb Code    12  stm32f10x_usart.o(.text)
    USART_Cmd                                0x0800a6b1   Thumb Code    20  stm32f10x_usart.o(.text)
    USART_ITConfig                           0x0800a6c5   Thumb Code    48  stm32f10x_usart.o(.text)
    USART_DMACmd                             0x0800a6f5   Thumb Code    16  stm32f10x_usart.o(.text)
    USART_SetAddress                         0x0800a705   Thumb Code    16  stm32f10x_usart.o(.text)
    USART_WakeUpConfig                       0x0800a715   Thumb Code    16  stm32f10x_usart.o(.text)
    USART_ReceiverWakeUpCmd                  0x0800a725   Thumb Code    20  stm32f10x_usart.o(.text)
    USART_LINBreakDetectLengthConfig         0x0800a739   Thumb Code    16  stm32f10x_usart.o(.text)
    USART_LINCmd                             0x0800a749   Thumb Code    20  stm32f10x_usart.o(.text)
    USART_SendData                           0x0800a75d   Thumb Code     8  stm32f10x_usart.o(.text)
    USART_ReceiveData                        0x0800a765   Thumb Code     8  stm32f10x_usart.o(.text)
    USART_SendBreak                          0x0800a76d   Thumb Code    10  stm32f10x_usart.o(.text)
    USART_SetGuardTime                       0x0800a777   Thumb Code    16  stm32f10x_usart.o(.text)
    USART_SetPrescaler                       0x0800a787   Thumb Code    16  stm32f10x_usart.o(.text)
    USART_SmartCardCmd                       0x0800a797   Thumb Code    20  stm32f10x_usart.o(.text)
    USART_SmartCardNACKCmd                   0x0800a7ab   Thumb Code    20  stm32f10x_usart.o(.text)
    USART_HalfDuplexCmd                      0x0800a7bf   Thumb Code    20  stm32f10x_usart.o(.text)
    USART_OverSampling8Cmd                   0x0800a7d3   Thumb Code    20  stm32f10x_usart.o(.text)
    USART_OneBitMethodCmd                    0x0800a7e7   Thumb Code    20  stm32f10x_usart.o(.text)
    USART_IrDAConfig                         0x0800a7fb   Thumb Code    16  stm32f10x_usart.o(.text)
    USART_IrDACmd                            0x0800a80b   Thumb Code    20  stm32f10x_usart.o(.text)
    USART_GetFlagStatus                      0x0800a81f   Thumb Code    14  stm32f10x_usart.o(.text)
    USART_ClearFlag                          0x0800a82d   Thumb Code     6  stm32f10x_usart.o(.text)
    USART_GetITStatus                        0x0800a833   Thumb Code    62  stm32f10x_usart.o(.text)
    USART_ClearITPendingBit                  0x0800a871   Thumb Code    12  stm32f10x_usart.o(.text)
    GPIO_DeInit                              0x0800a891   Thumb Code   152  stm32f10x_gpio.o(.text)
    GPIO_AFIODeInit                          0x0800a929   Thumb Code    22  stm32f10x_gpio.o(.text)
    GPIO_Init                                0x0800a93f   Thumb Code   162  stm32f10x_gpio.o(.text)
    GPIO_StructInit                          0x0800a9e1   Thumb Code    16  stm32f10x_gpio.o(.text)
    GPIO_ReadInputDataBit                    0x0800a9f1   Thumb Code    14  stm32f10x_gpio.o(.text)
    GPIO_ReadInputData                       0x0800a9ff   Thumb Code     6  stm32f10x_gpio.o(.text)
    GPIO_ReadOutputDataBit                   0x0800aa05   Thumb Code    14  stm32f10x_gpio.o(.text)
    GPIO_ReadOutputData                      0x0800aa13   Thumb Code     6  stm32f10x_gpio.o(.text)
    GPIO_SetBits                             0x0800aa19   Thumb Code     4  stm32f10x_gpio.o(.text)
    GPIO_ResetBits                           0x0800aa1d   Thumb Code     4  stm32f10x_gpio.o(.text)
    GPIO_WriteBit                            0x0800aa21   Thumb Code    10  stm32f10x_gpio.o(.text)
    GPIO_Write                               0x0800aa2b   Thumb Code     4  stm32f10x_gpio.o(.text)
    GPIO_PinLockConfig                       0x0800aa2f   Thumb Code    16  stm32f10x_gpio.o(.text)
    GPIO_EventOutputConfig                   0x0800aa3f   Thumb Code    22  stm32f10x_gpio.o(.text)
    GPIO_EventOutputCmd                      0x0800aa55   Thumb Code     6  stm32f10x_gpio.o(.text)
    GPIO_PinRemapConfig                      0x0800aa5b   Thumb Code    82  stm32f10x_gpio.o(.text)
    GPIO_EXTILineConfig                      0x0800aaad   Thumb Code    34  stm32f10x_gpio.o(.text)
    GPIO_ETH_MediaInterfaceConfig            0x0800aacf   Thumb Code     6  stm32f10x_gpio.o(.text)
    FLASH_SetLatency                         0x0800aafd   Thumb Code    14  stm32f10x_flash.o(.text)
    FLASH_HalfCycleAccessCmd                 0x0800ab0b   Thumb Code    18  stm32f10x_flash.o(.text)
    FLASH_PrefetchBufferCmd                  0x0800ab1d   Thumb Code    18  stm32f10x_flash.o(.text)
    FLASH_Unlock                             0x0800ab2f   Thumb Code    12  stm32f10x_flash.o(.text)
    FLASH_UnlockBank1                        0x0800ab3b   Thumb Code    12  stm32f10x_flash.o(.text)
    FLASH_Lock                               0x0800ab47   Thumb Code    12  stm32f10x_flash.o(.text)
    FLASH_LockBank1                          0x0800ab53   Thumb Code    12  stm32f10x_flash.o(.text)
    FLASH_GetBank1Status                     0x0800ab5f   Thumb Code    34  stm32f10x_flash.o(.text)
    FLASH_WaitForLastOperation               0x0800ab81   Thumb Code    36  stm32f10x_flash.o(.text)
    FLASH_ErasePage                          0x0800aba5   Thumb Code    56  stm32f10x_flash.o(.text)
    FLASH_EraseAllPages                      0x0800abdd   Thumb Code    52  stm32f10x_flash.o(.text)
    FLASH_WaitForLastBank1Operation          0x0800ac11   Thumb Code    36  stm32f10x_flash.o(.text)
    FLASH_EraseAllBank1Pages                 0x0800ac35   Thumb Code    52  stm32f10x_flash.o(.text)
    FLASH_GetReadOutProtectionStatus         0x0800ac69   Thumb Code    14  stm32f10x_flash.o(.text)
    FLASH_EraseOptionBytes                   0x0800ac77   Thumb Code   108  stm32f10x_flash.o(.text)
    FLASH_ProgramWord                        0x0800ace3   Thumb Code    64  stm32f10x_flash.o(.text)
    FLASH_ProgramHalfWord                    0x0800ad23   Thumb Code    48  stm32f10x_flash.o(.text)
    FLASH_ProgramOptionByteData              0x0800ad53   Thumb Code    62  stm32f10x_flash.o(.text)
    FLASH_EnableWriteProtection              0x0800ad91   Thumb Code   158  stm32f10x_flash.o(.text)
    FLASH_ReadOutProtection                  0x0800ae2f   Thumb Code   118  stm32f10x_flash.o(.text)
    FLASH_UserOptionByteConfig               0x0800aea5   Thumb Code    92  stm32f10x_flash.o(.text)
    FLASH_GetUserOptionByte                  0x0800af01   Thumb Code     8  stm32f10x_flash.o(.text)
    FLASH_GetWriteProtectionOptionByte       0x0800af09   Thumb Code     6  stm32f10x_flash.o(.text)
    FLASH_GetPrefetchBufferStatus            0x0800af0f   Thumb Code    14  stm32f10x_flash.o(.text)
    FLASH_ITConfig                           0x0800af1d   Thumb Code    18  stm32f10x_flash.o(.text)
    FLASH_GetFlagStatus                      0x0800af2f   Thumb Code    28  stm32f10x_flash.o(.text)
    FLASH_ClearFlag                          0x0800af4b   Thumb Code     6  stm32f10x_flash.o(.text)
    FLASH_GetStatus                          0x0800af51   Thumb Code    34  stm32f10x_flash.o(.text)
    Reset_Handler                            0x0800af79   Thumb Code    20  startup_stm32f10x_md.o(.text)
    Reboot_Loader                            0x0800af8d   Thumb Code    44  startup_stm32f10x_md.o(.text)
    NMI_Handler                              0x0800afb9   Thumb Code     2  startup_stm32f10x_md.o(.text)
    HardFault_Handler                        0x0800afbb   Thumb Code     2  startup_stm32f10x_md.o(.text)
    MemManage_Handler                        0x0800afbd   Thumb Code     2  startup_stm32f10x_md.o(.text)
    BusFault_Handler                         0x0800afbf   Thumb Code     2  startup_stm32f10x_md.o(.text)
    UsageFault_Handler                       0x0800afc1   Thumb Code     2  startup_stm32f10x_md.o(.text)
    SVC_Handler                              0x0800afc3   Thumb Code     2  startup_stm32f10x_md.o(.text)
    DebugMon_Handler                         0x0800afc5   Thumb Code     2  startup_stm32f10x_md.o(.text)
    PendSV_Handler                           0x0800afc7   Thumb Code     2  startup_stm32f10x_md.o(.text)
    ADC1_2_IRQHandler                        0x0800afcb   Thumb Code     0  startup_stm32f10x_md.o(.text)
    CAN1_RX1_IRQHandler                      0x0800afcb   Thumb Code     0  startup_stm32f10x_md.o(.text)
    CAN1_SCE_IRQHandler                      0x0800afcb   Thumb Code     0  startup_stm32f10x_md.o(.text)
    DMA1_Channel1_IRQHandler                 0x0800afcb   Thumb Code     0  startup_stm32f10x_md.o(.text)
    DMA1_Channel2_IRQHandler                 0x0800afcb   Thumb Code     0  startup_stm32f10x_md.o(.text)
    DMA1_Channel3_IRQHandler                 0x0800afcb   Thumb Code     0  startup_stm32f10x_md.o(.text)
    DMA1_Channel5_IRQHandler                 0x0800afcb   Thumb Code     0  startup_stm32f10x_md.o(.text)
    DMA1_Channel6_IRQHandler                 0x0800afcb   Thumb Code     0  startup_stm32f10x_md.o(.text)
    DMA1_Channel7_IRQHandler                 0x0800afcb   Thumb Code     0  startup_stm32f10x_md.o(.text)
    EXTI0_IRQHandler                         0x0800afcb   Thumb Code     0  startup_stm32f10x_md.o(.text)
    EXTI1_IRQHandler                         0x0800afcb   Thumb Code     0  startup_stm32f10x_md.o(.text)
    EXTI2_IRQHandler                         0x0800afcb   Thumb Code     0  startup_stm32f10x_md.o(.text)
    EXTI3_IRQHandler                         0x0800afcb   Thumb Code     0  startup_stm32f10x_md.o(.text)
    EXTI4_IRQHandler                         0x0800afcb   Thumb Code     0  startup_stm32f10x_md.o(.text)
    EXTI9_5_IRQHandler                       0x0800afcb   Thumb Code     0  startup_stm32f10x_md.o(.text)
    FLASH_IRQHandler                         0x0800afcb   Thumb Code     0  startup_stm32f10x_md.o(.text)
    PVD_IRQHandler                           0x0800afcb   Thumb Code     0  startup_stm32f10x_md.o(.text)
    RCC_IRQHandler                           0x0800afcb   Thumb Code     0  startup_stm32f10x_md.o(.text)
    RTCAlarm_IRQHandler                      0x0800afcb   Thumb Code     0  startup_stm32f10x_md.o(.text)
    RTC_IRQHandler                           0x0800afcb   Thumb Code     0  startup_stm32f10x_md.o(.text)
    SPI1_IRQHandler                          0x0800afcb   Thumb Code     0  startup_stm32f10x_md.o(.text)
    SPI2_IRQHandler                          0x0800afcb   Thumb Code     0  startup_stm32f10x_md.o(.text)
    TAMPER_IRQHandler                        0x0800afcb   Thumb Code     0  startup_stm32f10x_md.o(.text)
    TIM1_BRK_IRQHandler                      0x0800afcb   Thumb Code     0  startup_stm32f10x_md.o(.text)
    TIM1_CC_IRQHandler                       0x0800afcb   Thumb Code     0  startup_stm32f10x_md.o(.text)
    TIM1_TRG_COM_IRQHandler                  0x0800afcb   Thumb Code     0  startup_stm32f10x_md.o(.text)
    TIM1_UP_IRQHandler                       0x0800afcb   Thumb Code     0  startup_stm32f10x_md.o(.text)
    TIM4_IRQHandler                          0x0800afcb   Thumb Code     0  startup_stm32f10x_md.o(.text)
    USART1_IRQHandler                        0x0800afcb   Thumb Code     0  startup_stm32f10x_md.o(.text)
    USART3_IRQHandler                        0x0800afcb   Thumb Code     0  startup_stm32f10x_md.o(.text)
    USBWakeUp_IRQHandler                     0x0800afcb   Thumb Code     0  startup_stm32f10x_md.o(.text)
    USB_HP_CAN1_TX_IRQHandler                0x0800afcb   Thumb Code     0  startup_stm32f10x_md.o(.text)
    USB_LP_CAN1_RX0_IRQHandler               0x0800afcb   Thumb Code     0  startup_stm32f10x_md.o(.text)
    WWDG_IRQHandler                          0x0800afcb   Thumb Code     0  startup_stm32f10x_md.o(.text)
    toupper                                  0x0800aff5   Thumb Code    12  toupper.o(.text)
    bsearch                                  0x0800b001   Thumb Code    70  bsearch.o(.text)
    __aeabi_memcpy                           0x0800b047   Thumb Code    36  memcpya.o(.text)
    __aeabi_memcpy4                          0x0800b047   Thumb Code     0  memcpya.o(.text)
    __aeabi_memcpy8                          0x0800b047   Thumb Code     0  memcpya.o(.text)
    __aeabi_memset                           0x0800b06b   Thumb Code    14  memseta.o(.text)
    __aeabi_memset4                          0x0800b06b   Thumb Code     0  memseta.o(.text)
    __aeabi_memset8                          0x0800b06b   Thumb Code     0  memseta.o(.text)
    __aeabi_memclr                           0x0800b079   Thumb Code     4  memseta.o(.text)
    __aeabi_memclr4                          0x0800b079   Thumb Code     0  memseta.o(.text)
    __aeabi_memclr8                          0x0800b079   Thumb Code     0  memseta.o(.text)
    _memset$wrapper                          0x0800b07d   Thumb Code    20  memseta.o(.text)
    strstr                                   0x0800b091   Thumb Code    44  strstr.o(.text)
    strchr                                   0x0800b0bd   Thumb Code    18  strchr.o(.text)
    strlen                                   0x0800b0cf   Thumb Code    16  strlen.o(.text)
    strncasecmp                              0x0800b0df   Thumb Code    50  strncasecmp.o(.text)
    atoi                                     0x0800b111   Thumb Code    26  atoi.o(.text)
    __aeabi_fadd                             0x0800b12b   Thumb Code   164  fadd.o(.text)
    __aeabi_fsub                             0x0800b1cf   Thumb Code     6  fadd.o(.text)
    __aeabi_frsub                            0x0800b1d5   Thumb Code     6  fadd.o(.text)
    __aeabi_fmul                             0x0800b1db   Thumb Code   108  fmul.o(.text)
    __aeabi_fdiv                             0x0800b247   Thumb Code   128  fdiv.o(.text)
    __aeabi_dadd                             0x0800b2c7   Thumb Code   320  dadd.o(.text)
    __aeabi_dsub                             0x0800b407   Thumb Code     6  dadd.o(.text)
    __aeabi_drsub                            0x0800b40d   Thumb Code     6  dadd.o(.text)
    __aeabi_dmul                             0x0800b413   Thumb Code   224  dmul.o(.text)
    __aeabi_ddiv                             0x0800b4f3   Thumb Code   222  ddiv.o(.text)
    __aeabi_i2f                              0x0800b5d1   Thumb Code    18  fflti.o(.text)
    __aeabi_ui2f                             0x0800b5e3   Thumb Code    10  ffltui.o(.text)
    __aeabi_i2d                              0x0800b5ed   Thumb Code    34  dflti.o(.text)
    __aeabi_ui2d                             0x0800b60f   Thumb Code    26  dfltui.o(.text)
    __aeabi_f2iz                             0x0800b629   Thumb Code    50  ffixi.o(.text)
    __aeabi_f2uiz                            0x0800b65b   Thumb Code    40  ffixui.o(.text)
    __aeabi_d2iz                             0x0800b683   Thumb Code    62  dfixi.o(.text)
    __aeabi_f2d                              0x0800b6c1   Thumb Code    44  f2d.o(.text)
    __aeabi_d2f                              0x0800b6ed   Thumb Code    56  d2f.o(.text)
    __aeabi_cfcmpeq                          0x0800b725   Thumb Code     0  cfcmple.o(.text)
    __aeabi_cfcmple                          0x0800b725   Thumb Code    20  cfcmple.o(.text)
    __aeabi_cfrcmple                         0x0800b739   Thumb Code    20  cfrcmple.o(.text)
    __aeabi_uldivmod                         0x0800b74d   Thumb Code    98  uldiv.o(.text)
    __aeabi_llsl                             0x0800b7af   Thumb Code    30  llshl.o(.text)
    _ll_shift_l                              0x0800b7af   Thumb Code     0  llshl.o(.text)
    __aeabi_llsr                             0x0800b7cd   Thumb Code    32  llushr.o(.text)
    _ll_ushift_r                             0x0800b7cd   Thumb Code     0  llushr.o(.text)
    __aeabi_lasr                             0x0800b7ed   Thumb Code    36  llsshr.o(.text)
    _ll_sshift_r                             0x0800b7ed   Thumb Code     0  llsshr.o(.text)
    tolower                                  0x0800b811   Thumb Code    12  tolower.o(.text)
    strtol                                   0x0800b81d   Thumb Code   112  strtol.o(.text)
    __I$use$fp                               0x0800b88d   Thumb Code     0  iusefp.o(.text)
    _float_round                             0x0800b88d   Thumb Code    18  fepilogue.o(.text)
    _float_epilogue                          0x0800b89f   Thumb Code    90  fepilogue.o(.text)
    __ARM_scalbnf                            0x0800b8f9   Thumb Code    24  fscalb.o(.text)
    scalbnf                                  0x0800b8f9   Thumb Code     0  fscalb.o(.text)
    _fsqrt                                   0x0800b911   Thumb Code    94  fsqrt.o(.text)
    _frnd                                    0x0800b96f   Thumb Code    60  frnd.o(.text)
    _double_round                            0x0800b9ab   Thumb Code    26  depilogue.o(.text)
    _double_epilogue                         0x0800b9c5   Thumb Code   164  depilogue.o(.text)
    __ARM_scalbn                             0x0800ba69   Thumb Code    46  dscalb.o(.text)
    scalbn                                   0x0800ba69   Thumb Code     0  dscalb.o(.text)
    __aeabi_cdrcmple                         0x0800ba99   Thumb Code    38  cdrcmple.o(.text)
    __scatterload                            0x0800bac1   Thumb Code    28  init.o(.text)
    __scatterload_rt2                        0x0800bac1   Thumb Code     0  init.o(.text)
    __rt_ctype_table                         0x0800bae5   Thumb Code     4  ctype_o.o(.text)
    _strtoul                                 0x0800baed   Thumb Code   158  _strtoul.o(.text)
    _dsqrt                                   0x0800bb8b   Thumb Code   162  dsqrt.o(.text)
    _chval                                   0x0800bc2d   Thumb Code    28  _chval.o(.text)
    __decompress                             0x0800bc49   Thumb Code     0  __dczerorl2.o(.text)
    __decompress1                            0x0800bc49   Thumb Code    92  __dczerorl2.o(.text)
    __0sprintf$5                             0x0800bca5   Thumb Code    34  printf5.o(i.__0sprintf$5)
    __1sprintf$5                             0x0800bca5   Thumb Code     0  printf5.o(i.__0sprintf$5)
    __2sprintf                               0x0800bca5   Thumb Code     0  printf5.o(i.__0sprintf$5)
    __ARM_fpclassify                         0x0800bccd   Thumb Code    40  fpclassify.o(i.__ARM_fpclassify)
    __ARM_fpclassifyf                        0x0800bcf5   Thumb Code    38  fpclassifyf.o(i.__ARM_fpclassifyf)
    __aeabi_errno_addr                       0x0800bd1d   Thumb Code     4  errno.o(i.__aeabi_errno_addr)
    __rt_errno_addr                          0x0800bd1d   Thumb Code     0  errno.o(i.__aeabi_errno_addr)
    __ieee754_rem_pio2                       0x0800bd25   Thumb Code   828  rred.o(i.__ieee754_rem_pio2)
    __kernel_cos                             0x0800c0a9   Thumb Code   230  cos_i.o(i.__kernel_cos)
    __kernel_poly                            0x0800c1a5   Thumb Code   170  poly.o(i.__kernel_poly)
    __kernel_sin                             0x0800c251   Thumb Code   224  sin_i.o(i.__kernel_sin)
    __mathlib_dbl_underflow                  0x0800c33d   Thumb Code    10  dunder.o(i.__mathlib_dbl_underflow)
    __mathlib_flt_underflow                  0x0800c34d   Thumb Code    10  funder.o(i.__mathlib_flt_underflow)
    __mathlib_rredf2                         0x0800c359   Thumb Code   328  rredf.o(i.__mathlib_rredf2)
    __scatterload_copy                       0x0800c4b1   Thumb Code    14  handlers.o(i.__scatterload_copy)
    __scatterload_null                       0x0800c4bf   Thumb Code     2  handlers.o(i.__scatterload_null)
    __scatterload_zeroinit                   0x0800c4c1   Thumb Code    14  handlers.o(i.__scatterload_zeroinit)
    __set_errno                              0x0800c4d1   Thumb Code     6  errno.o(i.__set_errno)
    atan2f                                   0x0800c7b9   Thumb Code   520  atan2f.o(i.atan2f)
    cosf                                     0x0800ca0d   Thumb Code   332  cosf.o(i.cosf)
    pow                                      0x0800cb8d   Thumb Code  2522  pow.o(i.pow)
    sin                                      0x0800d579   Thumb Code   166  sin.o(i.sin)
    sinf                                     0x0800d629   Thumb Code   342  sinf.o(i.sinf)
    sqrt                                     0x0800d7b5   Thumb Code    76  sqrt.o(i.sqrt)
    sqrtf                                    0x0800d801   Thumb Code    44  sqrtf.o(i.sqrtf)
    cmdTable                                 0x0800d82c   Data         120  cli.o(.constdata)
    valueTable                               0x0800d8a4   Data        1300  cli.o(.constdata)
    rcChannelLetters                         0x0800ddb8   Data           9  config.o(.constdata)
    __mathlib_zero                           0x0800de98   Data           8  qnan.o(.constdata)
    __ctype_table                            0x0800dfb0   Data         129  ctype_o.o(.constdata)
    Region$$Table$$Base                      0x0800e540   Number         0  anon$$obj.o(Region$$Table)
    Region$$Table$$Limit                     0x0800e560   Number         0  anon$$obj.o(Region$$Table)
    mixerNames                               0x20000004   Data          72  cli.o(.data)
    featureNames                             0x2000004c   Data          52  cli.o(.data)
    sensorNames                              0x20000080   Data          24  cli.o(.data)
    accNames                                 0x20000098   Data          20  cli.o(.data)
    checkNewConf                             0x200000b0   Data           1  config.o(.data)
    acc_25deg                                0x200000b4   Data           2  imu.o(.data)
    BaroPID                                  0x200000b6   Data           2  imu.o(.data)
    errorAltitudeI                           0x200000b8   Data           2  imu.o(.data)
    magneticDeclination                      0x200000bc   Data           4  imu.o(.data)
    gyroData                                 0x200000c0   Data           6  imu.o(.data)
    gyroZero                                 0x200000c6   Data           6  imu.o(.data)
    angle                                    0x200000cc   Data           4  imu.o(.data)
    smallAngle25                             0x200000d0   Data           1  imu.o(.data)
    gyroADC                                  0x200000fc   Data           6  imu.o(.data)
    accADC                                   0x20000102   Data           6  imu.o(.data)
    accSmooth                                0x20000108   Data           6  imu.o(.data)
    magADC                                   0x2000010e   Data           6  imu.o(.data)
    BaroAlt                                  0x20000114   Data           4  imu.o(.data)
    sonarAlt                                 0x20000118   Data           2  imu.o(.data)
    EstAlt                                   0x2000011c   Data           4  imu.o(.data)
    AltHold                                  0x20000120   Data           4  imu.o(.data)
    useServo                                 0x20000125   Data           1  mixer.o(.data)
    servo                                    0x20000126   Data          16  mixer.o(.data)
    buzzerState                              0x2000013c   Data           1  mw.o(.data)
    toggleBeep                               0x2000013d   Data           1  mw.o(.data)
    currentTime                              0x20000140   Data           4  mw.o(.data)
    previousTime                             0x20000144   Data           4  mw.o(.data)
    cycleTime                                0x20000148   Data           2  mw.o(.data)
    GPSModeHome                              0x2000014a   Data           1  mw.o(.data)
    GPSModeHold                              0x2000014b   Data           1  mw.o(.data)
    headFreeMode                             0x2000014c   Data           1  mw.o(.data)
    passThruMode                             0x2000014d   Data           1  mw.o(.data)
    annex650_overrun_count                   0x2000014e   Data           2  mw.o(.data)
    armed                                    0x20000150   Data           1  mw.o(.data)
    failsafeCnt                              0x20000152   Data           2  mw.o(.data)
    failsafeEvents                           0x20000154   Data           2  mw.o(.data)
    rcData                                   0x20000156   Data          16  mw.o(.data)
    rcReadRawFunc                            0x20000168   Data           4  mw.o(.data)
    okToArm                                  0x2000016c   Data           1  mw.o(.data)
    accMode                                  0x2000016d   Data           1  mw.o(.data)
    magMode                                  0x2000016e   Data           1  mw.o(.data)
    baroMode                                 0x2000016f   Data           1  mw.o(.data)
    GPS_fix_home                             0x20000170   Data           1  mw.o(.data)
    GPS_update                               0x20000171   Data           1  mw.o(.data)
    GPS_angle                                0x20000172   Data           4  mw.o(.data)
    GPS_ground_course                        0x20000176   Data           2  mw.o(.data)
    GPS_Present                              0x20000178   Data           1  mw.o(.data)
    GPS_Enable                               0x20000179   Data           1  mw.o(.data)
    nav_mode                                 0x2000017a   Data           1  mw.o(.data)
    InflightcalibratingA                     0x2000017c   Data           2  mw.o(.data)
    AccInflightCalibrationMeasurementDone    0x2000017e   Data           2  mw.o(.data)
    AccInflightCalibrationSavetoEEProm       0x20000180   Data           2  mw.o(.data)
    AccInflightCalibrationActive             0x20000182   Data           2  mw.o(.data)
    batteryCellCount                         0x20000184   Data           1  mw.o(.data)
    debug1                                   0x200001c0   Data           2  mw.o(.data)
    debug2                                   0x200001c2   Data           2  mw.o(.data)
    debug3                                   0x200001c4   Data           2  mw.o(.data)
    debug4                                   0x200001c6   Data           2  mw.o(.data)
    headFreeModeHold                         0x200001c8   Data           2  mw.o(.data)
    vbat                                     0x200001ca   Data           1  mw.o(.data)
    rcCommand                                0x200001cc   Data           8  mw.o(.data)
    dynP8                                    0x200001d4   Data           3  mw.o(.data)
    dynI8                                    0x200001d7   Data           3  mw.o(.data)
    dynD8                                    0x200001da   Data           3  mw.o(.data)
    axisPID                                  0x200001de   Data           6  mw.o(.data)
    GPS_coord                                0x200001e4   Data           8  mw.o(.data)
    GPS_home                                 0x200001ec   Data           8  mw.o(.data)
    GPS_hold                                 0x200001f4   Data           8  mw.o(.data)
    GPS_fix                                  0x200001fc   Data           1  mw.o(.data)
    GPS_numSat                               0x200001fd   Data           1  mw.o(.data)
    GPS_distanceToHome                       0x200001fe   Data           2  mw.o(.data)
    GPS_distanceToHold                       0x20000200   Data           2  mw.o(.data)
    GPS_directionToHome                      0x20000202   Data           2  mw.o(.data)
    GPS_directionToHold                      0x20000204   Data           2  mw.o(.data)
    GPS_altitude                             0x20000206   Data           2  mw.o(.data)
    GPS_speed                                0x20000208   Data           2  mw.o(.data)
    nav                                      0x2000020a   Data           4  mw.o(.data)
    AccInflightCalibrationArmed              0x2000020e   Data           2  mw.o(.data)
    batteryWarningVoltage                    0x20000210   Data           2  mw.o(.data)
    calibratedACC                            0x20000214   Data           1  sensors.o(.data)
    calibratingA                             0x20000216   Data           2  sensors.o(.data)
    calibratingG                             0x20000218   Data           2  sensors.o(.data)
    calibratingM                             0x2000021a   Data           1  sensors.o(.data)
    acc_1G                                   0x2000021c   Data           2  sensors.o(.data)
    accHardware                              0x2000021e   Data           1  sensors.o(.data)
    heading                                  0x20000264   Data           2  sensors.o(.data)
    magHold                                  0x20000266   Data           2  sensors.o(.data)
    cliMode                                  0x20000268   Data           1  serial.o(.data)
    acc_samples                              0x20000327   Data           1  drv_adxl345.o(.data)
    rxDMAPos                                 0x200003d0   Data           4  drv_uart.o(.data)
    txBufferTail                             0x200003d4   Data           4  drv_uart.o(.data)
    txBufferHead                             0x200003d8   Data           4  drv_uart.o(.data)
    uart2Callback                            0x200003dc   Data           4  drv_uart.o(.data)
    mpuProductID                             0x200003e1   Data           1  drv_mpu6050.o(.data)
    SystemCoreClock                          0x200003e4   Data           4  system_stm32f10x.o(.data)
    AHBPrescTable                            0x200003e8   Data          16  system_stm32f10x.o(.data)
    cfg                                      0x20000430   Data         180  config.o(.bss)
    motor                                    0x20000558   Data          16  mixer.o(.bss)
    lookupPitchRollRC                        0x200005c8   Data          12  mw.o(.bss)
    lookupThrottleRC                         0x200005d4   Data          22  mw.o(.bss)
    rcOptions                                0x200005ea   Data          11  mw.o(.bss)
    acc                                      0x2000061c   Data          12  sensors.o(.bss)
    gyro                                     0x20000628   Data          12  sensors.o(.bss)
    spekFrame                                0x20000770   Data          16  spektrum.o(.bss)
    wifiChannelData                          0x20000780   Data          28  wificontroller.o(.bss)
    wifiFrame                                0x2000079c   Data         128  wificontroller.o(.bss)
    rxBuffer                                 0x2000088e   Data         256  drv_uart.o(.bss)
    txBuffer                                 0x2000098e   Data         256  drv_uart.o(.bss)
    __initial_sp                             0x20001a90   Data           0  startup_stm32f10x_md.o(STACK)



==============================================================================

Memory Map of the image

  Image Entry point : 0x080000ed

  Load Region LR_IROM1 (Base: 0x08000000, Size: 0x0000e970, Max: 0x00020000, ABSOLUTE, COMPRESSED[0x0000e664])

    Execution Region ER_IROM1 (Base: 0x08000000, Size: 0x0000e560, Max: 0x00020000, ABSOLUTE)

    Base Addr    Size         Type   Attr      Idx    E Section Name        Object

    0x08000000   0x000000ec   Data   RO          675    RESET               startup_stm32f10x_md.o
    0x080000ec   0x00000000   Code   RO          730  * .ARM.Collect$$$$00000000  mc_w.l(entry.o)
    0x080000ec   0x00000004   Code   RO         1084    .ARM.Collect$$$$00000001  mc_w.l(entry2.o)
    0x080000f0   0x00000004   Code   RO         1087    .ARM.Collect$$$$00000004  mc_w.l(entry5.o)
    0x080000f4   0x00000000   Code   RO         1089    .ARM.Collect$$$$00000008  mc_w.l(entry7b.o)
    0x080000f4   0x00000008   Code   RO         1090    .ARM.Collect$$$$00000009  mc_w.l(entry8.o)
    0x080000fc   0x00000004   Code   RO         1085    .ARM.Collect$$$$00002712  mc_w.l(entry2.o)
    0x08000100   0x00000bc0   Code   RO            1    .text               cli.o
    0x08000cc0   0x00000520   Code   RO          140    .text               config.o
    0x080011e0   0x00000830   Code   RO          161    .text               imu.o
    0x08001a10   0x000001d4   Code   RO          181    .text               main.o
    0x08001be4   0x00001344   Code   RO          194    .text               mixer.o
    0x08002f28   0x00001408   Code   RO          215    .text               mw.o
    0x08004330   0x00000a5c   Code   RO          235    .text               sensors.o
    0x08004d8c   0x00000898   Code   RO          263    .text               serial.o
    0x08005624   0x0000103c   Code   RO          279    .text               gps.o
    0x08006660   0x00000150   Code   RO          294    .text               spektrum.o
    0x080067b0   0x000002cc   Code   RO          310    .text               buzzer.o
    0x08006a7c   0x000001b8   Code   RO          324    .text               wificontroller.o
    0x08006c34   0x000000dc   Code   RO          340    .text               drv_adc.o
    0x08006d10   0x00000180   Code   RO          354    .text               drv_adxl345.o
    0x08006e90   0x000004c0   Code   RO          370    .text               drv_bmp085.o
    0x08007350   0x000000d0   Code   RO          385    .text               drv_hmc5883l.o
    0x08007420   0x000007d0   Code   RO          397    .text               drv_i2c.o
    0x08007bf0   0x0000018c   Code   RO          411    .text               drv_mpu3050.o
    0x08007d7c   0x0000061c   Code   RO          425    .text               drv_pwm.o
    0x08008398   0x00000240   Code   RO          441    .text               drv_system.o
    0x080085d8   0x0000030c   Code   RO          460    .text               drv_uart.o
    0x080088e4   0x00000160   Code   RO          476    .text               drv_ledring.o
    0x08008a44   0x000001e4   Code   RO          489    .text               drv_mpu6050.o
    0x08008c28   0x00000140   Code   RO          505    .text               drv_mma845x.o
    0x08008d68   0x00000140   Code   RO          531    .text               system_stm32f10x.o
    0x08008ea8   0x000000b0   Code   RO          549    .text               misc.o
    0x08008f58   0x00000324   Code   RO          561    .text               stm32f10x_adc.o
    0x0800927c   0x000001c8   Code   RO          573    .text               stm32f10x_dma.o
    0x08009444   0x000000e8   Code   RO          585    .text               stm32f10x_exti.o
    0x0800952c   0x00000310   Code   RO          597    .text               stm32f10x_i2c.o
    0x0800983c   0x000002bc   Code   RO          609    .text               stm32f10x_rcc.o
    0x08009af8   0x00000a66   Code   RO          623    .text               stm32f10x_tim.o
    0x0800a55e   0x00000002   PAD
    0x0800a560   0x00000330   Code   RO          636    .text               stm32f10x_usart.o
    0x0800a890   0x0000026c   Code   RO          648    .text               stm32f10x_gpio.o
    0x0800aafc   0x0000047c   Code   RO          660    .text               stm32f10x_flash.o
    0x0800af78   0x0000007c   Code   RO          676    .text               startup_stm32f10x_md.o
    0x0800aff4   0x0000000c   Code   RO          733    .text               mc_w.l(toupper.o)
    0x0800b000   0x00000046   Code   RO          735    .text               mc_w.l(bsearch.o)
    0x0800b046   0x00000024   Code   RO          737    .text               mc_w.l(memcpya.o)
    0x0800b06a   0x00000026   Code   RO          739    .text               mc_w.l(memseta.o)
    0x0800b090   0x0000002c   Code   RO          741    .text               mc_w.l(strstr.o)
    0x0800b0bc   0x00000012   Code   RO          743    .text               mc_w.l(strchr.o)
    0x0800b0ce   0x00000010   Code   RO          745    .text               mc_w.l(strlen.o)
    0x0800b0de   0x00000032   Code   RO          749    .text               mc_w.l(strncasecmp.o)
    0x0800b110   0x0000001a   Code   RO         1012    .text               mc_w.l(atoi.o)
    0x0800b12a   0x000000b0   Code   RO         1014    .text               mf_w.l(fadd.o)
    0x0800b1da   0x0000006c   Code   RO         1016    .text               mf_w.l(fmul.o)
    0x0800b246   0x00000080   Code   RO         1018    .text               mf_w.l(fdiv.o)
    0x0800b2c6   0x0000014c   Code   RO         1020    .text               mf_w.l(dadd.o)
    0x0800b412   0x000000e0   Code   RO         1022    .text               mf_w.l(dmul.o)
    0x0800b4f2   0x000000de   Code   RO         1024    .text               mf_w.l(ddiv.o)
    0x0800b5d0   0x00000012   Code   RO         1026    .text               mf_w.l(fflti.o)
    0x0800b5e2   0x0000000a   Code   RO         1028    .text               mf_w.l(ffltui.o)
    0x0800b5ec   0x00000022   Code   RO         1030    .text               mf_w.l(dflti.o)
    0x0800b60e   0x0000001a   Code   RO         1032    .text               mf_w.l(dfltui.o)
    0x0800b628   0x00000032   Code   RO         1034    .text               mf_w.l(ffixi.o)
    0x0800b65a   0x00000028   Code   RO         1036    .text               mf_w.l(ffixui.o)
    0x0800b682   0x0000003e   Code   RO         1038    .text               mf_w.l(dfixi.o)
    0x0800b6c0   0x0000002c   Code   RO         1040    .text               mf_w.l(f2d.o)
    0x0800b6ec   0x00000038   Code   RO         1042    .text               mf_w.l(d2f.o)
    0x0800b724   0x00000014   Code   RO         1044    .text               mf_w.l(cfcmple.o)
    0x0800b738   0x00000014   Code   RO         1046    .text               mf_w.l(cfrcmple.o)
    0x0800b74c   0x00000062   Code   RO         1096    .text               mc_w.l(uldiv.o)
    0x0800b7ae   0x0000001e   Code   RO         1098    .text               mc_w.l(llshl.o)
    0x0800b7cc   0x00000020   Code   RO         1100    .text               mc_w.l(llushr.o)
    0x0800b7ec   0x00000024   Code   RO         1102    .text               mc_w.l(llsshr.o)
    0x0800b810   0x0000000c   Code   RO         1104    .text               mc_w.l(tolower.o)
    0x0800b81c   0x00000070   Code   RO         1113    .text               mc_w.l(strtol.o)
    0x0800b88c   0x00000000   Code   RO         1115    .text               mc_w.l(iusefp.o)
    0x0800b88c   0x0000006c   Code   RO         1116    .text               mf_w.l(fepilogue.o)
    0x0800b8f8   0x00000018   Code   RO         1118    .text               mf_w.l(fscalb.o)
    0x0800b910   0x0000005e   Code   RO         1120    .text               mf_w.l(fsqrt.o)
    0x0800b96e   0x0000003c   Code   RO         1122    .text               mf_w.l(frnd.o)
    0x0800b9aa   0x000000be   Code   RO         1124    .text               mf_w.l(depilogue.o)
    0x0800ba68   0x0000002e   Code   RO         1126    .text               mf_w.l(dscalb.o)
    0x0800ba96   0x00000002   PAD
    0x0800ba98   0x00000028   Code   RO         1130    .text               mf_w.l(cdrcmple.o)
    0x0800bac0   0x00000024   Code   RO         1132    .text               mc_w.l(init.o)
    0x0800bae4   0x00000008   Code   RO         1135    .text               mc_w.l(ctype_o.o)
    0x0800baec   0x0000009e   Code   RO         1163    .text               mc_w.l(_strtoul.o)
    0x0800bb8a   0x000000a2   Code   RO         1166    .text               mf_w.l(dsqrt.o)
    0x0800bc2c   0x0000001c   Code   RO         1170    .text               mc_w.l(_chval.o)
    0x0800bc48   0x0000005c   Code   RO         1180    .text               mc_w.l(__dczerorl2.o)
    0x0800bca4   0x00000028   Code   RO          886    i.__0sprintf$5      mc_w.l(printf5.o)
    0x0800bccc   0x00000028   Code   RO         1053    i.__ARM_fpclassify  m_ws.l(fpclassify.o)
    0x0800bcf4   0x00000026   Code   RO         1055    i.__ARM_fpclassifyf  m_ws.l(fpclassifyf.o)
    0x0800bd1a   0x00000002   PAD
    0x0800bd1c   0x00000008   Code   RO         1106    i.__aeabi_errno_addr  mc_w.l(errno.o)
    0x0800bd24   0x00000384   Code   RO         1062    i.__ieee754_rem_pio2  m_ws.l(rred.o)
    0x0800c0a8   0x000000fc   Code   RO         1048    i.__kernel_cos      m_ws.l(cos_i.o)
    0x0800c1a4   0x000000aa   Code   RO         1059    i.__kernel_poly     m_ws.l(poly.o)
    0x0800c24e   0x00000002   PAD
    0x0800c250   0x000000ec   Code   RO         1070    i.__kernel_sin      m_ws.l(sin_i.o)
    0x0800c33c   0x00000010   Code   RO         1051    i.__mathlib_dbl_underflow  m_ws.l(dunder.o)
    0x0800c34c   0x0000000a   Code   RO         1057    i.__mathlib_flt_underflow  m_ws.l(funder.o)
    0x0800c356   0x00000002   PAD
    0x0800c358   0x00000158   Code   RO         1067    i.__mathlib_rredf2  m_ws.l(rredf.o)
    0x0800c4b0   0x0000000e   Code   RO         1174    i.__scatterload_copy  mc_w.l(handlers.o)
    0x0800c4be   0x00000002   Code   RO         1175    i.__scatterload_null  mc_w.l(handlers.o)
    0x0800c4c0   0x0000000e   Code   RO         1176    i.__scatterload_zeroinit  mc_w.l(handlers.o)
    0x0800c4ce   0x00000002   PAD
    0x0800c4d0   0x0000000c   Code   RO         1108    i.__set_errno       mc_w.l(errno.o)
    0x0800c4dc   0x000002d0   Code   RO          891    i._printf_core      mc_w.l(printf5.o)
    0x0800c7ac   0x0000000a   Code   RO          893    i._sputc            mc_w.l(printf5.o)
    0x0800c7b6   0x00000002   PAD
    0x0800c7b8   0x00000254   Code   RO          681    i.atan2f            m_ws.l(atan2f.o)
    0x0800ca0c   0x00000180   Code   RO          689    i.cosf              m_ws.l(cosf.o)
    0x0800cb8c   0x000009ec   Code   RO          697    i.pow               m_ws.l(pow.o)
    0x0800d578   0x000000b0   Code   RO          707    i.sin               m_ws.l(sin.o)
    0x0800d628   0x0000018c   Code   RO          715    i.sinf              m_ws.l(sinf.o)
    0x0800d7b4   0x0000004c   Code   RO         1077    i.sqrt              m_ws.l(sqrt.o)
    0x0800d800   0x0000002c   Code   RO          723    i.sqrtf             m_ws.l(sqrtf.o)
    0x0800d82c   0x0000058c   Data   RO            3    .constdata          cli.o
    0x0800ddb8   0x00000009   Data   RO          142    .constdata          config.o
    0x0800ddc1   0x00000003   PAD
    0x0800ddc4   0x00000018   Data   RO          442    .constdata          drv_system.o
    0x0800dddc   0x00000004   PAD
    0x0800dde0   0x00000088   Data   RO          698    .constdata          m_ws.l(pow.o)
    0x0800de68   0x00000030   Data   RO         1049    .constdata          m_ws.l(cos_i.o)
    0x0800de98   0x00000008   Data   RO         1061    .constdata          m_ws.l(qnan.o)
    0x0800dea0   0x000000c8   Data   RO         1064    .constdata          m_ws.l(rred.o)
    0x0800df68   0x00000020   Data   RO         1068    .constdata          m_ws.l(rredf.o)
    0x0800df88   0x00000028   Data   RO         1071    .constdata          m_ws.l(sin_i.o)
    0x0800dfb0   0x00000081   Data   RO         1136    .constdata          mc_w.l(ctype_o.o)
    0x0800e031   0x00000003   PAD
    0x0800e034   0x00000004   Data   RO         1137    .constdata          mc_w.l(ctype_o.o)
    0x0800e038   0x00000508   Data   RO            4    .conststring        cli.o
    0x0800e540   0x00000020   Data   RO         1172    Region$$Table       anon$$obj.o


    Execution Region RW_IRAM1 (Base: 0x20000000, Size: 0x00001a90, Max: 0x00005000, ABSOLUTE, COMPRESSED[0x00000104])

    Base Addr    Size         Type   Attr      Idx    E Section Name        Object

    0x20000000   0x000000ac   Data   RW            5    .data               cli.o
    0x200000ac   0x00000005   Data   RW          143    .data               config.o
    0x200000b1   0x00000003   PAD
    0x200000b4   0x00000070   Data   RW          163    .data               imu.o
    0x20000124   0x00000018   Data   RW          196    .data               mixer.o
    0x2000013c   0x000000d6   Data   RW          217    .data               mw.o
    0x20000212   0x00000002   PAD
    0x20000214   0x00000054   Data   RW          237    .data               sensors.o
    0x20000268   0x00000008   Data   RW          265    .data               serial.o
    0x20000270   0x0000007a   Data   RW          281    .data               gps.o
    0x200002ea   0x00000002   PAD
    0x200002ec   0x0000000f   Data   RW          296    .data               spektrum.o
    0x200002fb   0x00000001   PAD
    0x200002fc   0x00000016   Data   RW          312    .data               buzzer.o
    0x20000312   0x00000002   PAD
    0x20000314   0x00000010   Data   RW          326    .data               wificontroller.o
    0x20000324   0x00000002   Data   RW          341    .data               drv_adc.o
    0x20000326   0x00000002   Data   RW          355    .data               drv_adxl345.o
    0x20000328   0x00000009   Data   RW          372    .data               drv_bmp085.o
    0x20000331   0x00000003   PAD
    0x20000334   0x0000001c   Data   RW          398    .data               drv_i2c.o
    0x20000350   0x00000001   Data   RW          412    .data               drv_mpu3050.o
    0x20000351   0x00000003   PAD
    0x20000354   0x00000071   Data   RW          427    .data               drv_pwm.o
    0x200003c5   0x00000003   PAD
    0x200003c8   0x00000008   Data   RW          443    .data               drv_system.o
    0x200003d0   0x00000010   Data   RW          462    .data               drv_uart.o
    0x200003e0   0x00000001   Data   RW          477    .data               drv_ledring.o
    0x200003e1   0x00000001   Data   RW          490    .data               drv_mpu6050.o
    0x200003e2   0x00000001   Data   RW          506    .data               drv_mma845x.o
    0x200003e3   0x00000001   PAD
    0x200003e4   0x00000014   Data   RW          532    .data               system_stm32f10x.o
    0x200003f8   0x00000014   Data   RW          610    .data               stm32f10x_rcc.o
    0x2000040c   0x00000004   Data   RW         1109    .data               mc_w.l(errno.o)
    0x20000410   0x00000020   Zero   RW            2    .bss                cli.o
    0x20000430   0x000000b4   Zero   RW          141    .bss                config.o
    0x200004e4   0x00000074   Zero   RW          162    .bss                imu.o
    0x20000558   0x00000010   Zero   RW          195    .bss                mixer.o
    0x20000568   0x0000008d   Zero   RW          216    .bss                mw.o
    0x200005f5   0x00000003   PAD
    0x200005f8   0x0000003c   Zero   RW          236    .bss                sensors.o
    0x20000634   0x00000040   Zero   RW          264    .bss                serial.o
    0x20000674   0x000000e0   Zero   RW          280    .bss                gps.o
    0x20000754   0x0000002c   Zero   RW          295    .bss                spektrum.o
    0x20000780   0x0000009c   Zero   RW          325    .bss                wificontroller.o
    0x2000081c   0x00000028   Zero   RW          371    .bss                drv_bmp085.o
    0x20000844   0x0000004a   Zero   RW          426    .bss                drv_pwm.o
    0x2000088e   0x00000200   Zero   RW          461    .bss                drv_uart.o
    0x20000a8e   0x00000002   PAD
    0x20000a90   0x00001000   Zero   RW          673    STACK               startup_stm32f10x_md.o


==============================================================================

Image component sizes


      Code (inc. data)   RO Data    RW Data    ZI Data      Debug   Object Name

       716         82          0         22          0       1137   buzzer.o
      3008        910       2708        172         32     295801   cli.o
      1312         52          9          5        180       9560   config.o
         0          0          0          0          0         32   core_cm3.o
       220         12          0          2          0       1088   drv_adc.o
       384         26          0          2          0       2375   drv_adxl345.o
      1216         36          0          9         40       4994   drv_bmp085.o
       208          0          0          0          0       1913   drv_hmc5883l.o
      2000        100          0         28          0       4489   drv_i2c.o
       352         18          0          1          0        946   drv_ledring.o
       320         20          0          1          0       2485   drv_mma845x.o
       396         16          0          1          0       2162   drv_mpu3050.o
       484         32          0          1          0       5491   drv_mpu6050.o
      1564        100          0        113         74       3893   drv_pwm.o
       576         68         24          8          0      17774   drv_system.o
       780         40          0         16        512       3251   drv_uart.o
      4156        434          0        122        224       9708   gps.o
      2096        184          0        112        116       4110   imu.o
       468         40          0          0          0        911   main.o
       176         18          0          0          0       1801   misc.o
      4932        190          0         24         16       2829   mixer.o
      5128        504          0        214        141       7842   mw.o
      2652        252          0         84         60       5030   sensors.o
      2200        234          0          8         64       3968   serial.o
       336         48          0         15         44       1871   spektrum.o
       124         40        236          0       4096        832   startup_stm32f10x_md.o
       804         26          0          0          0      10969   stm32f10x_adc.o
       456         10          0          0          0       4578   stm32f10x_dma.o
       232          8          0          0          0       2295   stm32f10x_exti.o
      1148         22          0          0          0       9188   stm32f10x_flash.o
       620         40          0          0          0       5721   stm32f10x_gpio.o
       784         14          0          0          0       9343   stm32f10x_i2c.o
       700         40          0         20          0       8840   stm32f10x_rcc.o
      2662         84          0          0          0      22702   stm32f10x_tim.o
       816         20          0          0          0       8676   stm32f10x_usart.o
       320         32          0         20          0       1875   system_stm32f10x.o
       440         50          0         16        156       2684   wificontroller.o

    ----------------------------------------------------------------------
     44788       3802       3016       1036       5760     483164   Object Totals
         0          0         32          0          0          0   (incl. Generated)
         2          0          7         20          5          0   (incl. Padding)

    ----------------------------------------------------------------------

      Code (inc. data)   RO Data    RW Data    ZI Data      Debug   Library Member Name

       596         76          0          0          0        116   atan2f.o
       252         22         48          0          0        128   cos_i.o
       384         52          0          0          0        116   cosf.o
        16          6          0          0          0         68   dunder.o
        40          0          0          0          0         68   fpclassify.o
        38          0          0          0          0         68   fpclassifyf.o
        10          0          0          0          0         68   funder.o
       170          0          0          0          0         96   poly.o
      2540        192        136          0          0        340   pow.o
         0          0          8          0          0          0   qnan.o
       900         72        200          0          0        140   rred.o
       344         16         32          0          0         88   rredf.o
       176         10          0          0          0        120   sin.o
       236         12         40          0          0        132   sin_i.o
       396         54          0          0          0        116   sinf.o
        76          0          0          0          0         84   sqrt.o
        44          0          0          0          0         80   sqrtf.o
        92          0          0          0          0          0   __dczerorl2.o
        28          0          0          0          0         68   _chval.o
       158          0          0          0          0         92   _strtoul.o
        26          0          0          0          0         80   atoi.o
        70          0          0          0          0         92   bsearch.o
         8          4        133          0          0         68   ctype_o.o
         0          0          0          0          0          0   entry.o
         8          4          0          0          0          0   entry2.o
         4          0          0          0          0          0   entry5.o
         0          0          0          0          0          0   entry7b.o
         8          4          0          0          0          0   entry8.o
        20         10          0          4          0        136   errno.o
        30          0          0          0          0          0   handlers.o
        36          8          0          0          0         68   init.o
         0          0          0          0          0          0   iusefp.o
        30          0          0          0          0         68   llshl.o
        36          0          0          0          0         68   llsshr.o
        32          0          0          0          0         68   llushr.o
        36          0          0          0          0         68   memcpya.o
        38          0          0          0          0        108   memseta.o
       770         50          0          0          0        252   printf5.o
        18          0          0          0          0         68   strchr.o
        16          0          0          0          0         68   strlen.o
        50          0          0          0          0         84   strncasecmp.o
        44          0          0          0          0         80   strstr.o
       112          0          0          0          0         88   strtol.o
        12          0          0          0          0         68   tolower.o
        12          0          0          0          0         68   toupper.o
        98          0          0          0          0         92   uldiv.o
        40          2          0          0          0         68   cdrcmple.o
        20          0          0          0          0         68   cfcmple.o
        20          0          0          0          0         68   cfrcmple.o
        56          0          0          0          0         88   d2f.o
       332          0          0          0          0        148   dadd.o
       222          0          0          0          0        100   ddiv.o
       190          0          0          0          0        176   depilogue.o
        62          0          0          0          0         80   dfixi.o
        34          0          0          0          0         76   dflti.o
        26          0          0          0          0         76   dfltui.o
       224          0          0          0          0         96   dmul.o
        46          0          0          0          0         80   dscalb.o
       162          0          0          0          0        100   dsqrt.o
        44          0          0          0          0         68   f2d.o
       176          0          0          0          0        140   fadd.o
       128          0          0          0          0         88   fdiv.o
       108          0          0          0          0        168   fepilogue.o
        50          0          0          0          0         68   ffixi.o
        40          0          0          0          0         68   ffixui.o
        18          0          0          0          0         68   fflti.o
        10          0          0          0          0         68   ffltui.o
       108          0          0          0          0         76   fmul.o
        60          0          0          0          0         76   frnd.o
        24          0          0          0          0         68   fscalb.o
        94          0          0          0          0         96   fsqrt.o

    ----------------------------------------------------------------------
     10316        594        600          4          0       5956   Library Totals
        12          0          3          0          0          0   (incl. Padding)

    ----------------------------------------------------------------------

      Code (inc. data)   RO Data    RW Data    ZI Data      Debug   Library Name

      6218        512        464          0          0       1828   m_ws.l
      1792         80        133          4          0       1852   mc_w.l
      2294          2          0          0          0       2276   mf_w.l

    ----------------------------------------------------------------------
     10316        594        600          4          0       5956   Library Totals

    ----------------------------------------------------------------------

==============================================================================


      Code (inc. data)   RO Data    RW Data    ZI Data      Debug   

     55104       4396       3616       1040       5760     481528   Grand Totals
     55104       4396       3616        260       5760     481528   ELF Image Totals (compressed)
     55104       4396       3616        260          0          0   ROM Totals

==============================================================================

    Total RO  Size (Code + RO Data)                58720 (  57.34kB)
    Total RW  Size (RW Data + ZI Data)              6800 (   6.64kB)
    Total ROM Size (Code + RO Data + RW Data)      58980 (  57.60kB)

==============================================================================

